# SymbolsHelper-Confirmed: 6.6.1 amd64
libQt6Charts.so.6 libqt6charts6 #MINVER#
* Build-Depends-Package: qt6-charts-dev
 Qt_6@Qt_6 6.6.1
 Qt_6_PRIVATE_API@Qt_6_PRIVATE_API 6.6.1
 _ZGVZN9QMetaType21registerConverterImplI5QHashIN9QXYSeries18PointConfigurationE8QVariantE9QIterableI16QMetaAssociationEEEbSt8functionIFbPKvPvEES_S_E10unregister@Qt_6 6.6.1
 _ZGVZN9QMetaType21registerConverterImplI5QHashIiS1_IN9QXYSeries18PointConfigurationE8QVariantEE9QIterableI16QMetaAssociationEEEbSt8functionIFbPKvPvEES_S_E10unregister@Qt_6 6.6.1
 _ZGVZN9QMetaType21registerConverterImplI5QListI6QRectFE9QIterableI13QMetaSequenceEEEbSt8functionIFbPKvPvEES_S_E10unregister@Qt_6 6.6.1
 _ZGVZN9QMetaType21registerConverterImplI5QListI7QPointFE9QIterableI13QMetaSequenceEEEbSt8functionIFbPKvPvEES_S_E10unregister@Qt_6 6.6.1
 _ZGVZN9QMetaType21registerConverterImplI5QListIP15QCandlestickSetE9QIterableI13QMetaSequenceEEEbSt8functionIFbPKvPvEES_S_E10unregister@Qt_6 6.6.1
 _ZGVZN9QMetaType21registerConverterImplI5QListIP7QBarSetE9QIterableI13QMetaSequenceEEEbSt8functionIFbPKvPvEES_S_E10unregister@Qt_6 6.6.1
 _ZGVZN9QMetaType21registerConverterImplI5QListIP7QBoxSetE9QIterableI13QMetaSequenceEEEbSt8functionIFbPKvPvEES_S_E10unregister@Qt_6 6.6.1
 _ZGVZN9QMetaType21registerConverterImplI5QListIP9QPieSliceE9QIterableI13QMetaSequenceEEEbSt8functionIFbPKvPvEES_S_E10unregister@Qt_6 6.6.1
 _ZGVZN9QMetaType21registerConverterImplI5QListIdE9QIterableI13QMetaSequenceEEEbSt8functionIFbPKvPvEES_S_E10unregister@Qt_6 6.6.1
 _ZGVZN9QMetaType21registerConverterImplI5QListIiE9QIterableI13QMetaSequenceEEEbSt8functionIFbPKvPvEES_S_E10unregister@Qt_6 6.6.1
 _ZGVZN9QMetaType21registerConverterImplISt4pairI5QListI7QPointFES4_EN17QtMetaTypePrivate25QPairVariantInterfaceImplEEEbSt8functionIFbPKvPvEES_S_E10unregister@Qt_6 6.6.1
 _ZGVZN9QMetaType23registerMutableViewImplI5QHashIN9QXYSeries18PointConfigurationE8QVariantE9QIterableI16QMetaAssociationEEEbSt8functionIFbPvSA_EES_S_E10unregister@Qt_6 6.6.1
 _ZGVZN9QMetaType23registerMutableViewImplI5QHashIiS1_IN9QXYSeries18PointConfigurationE8QVariantEE9QIterableI16QMetaAssociationEEEbSt8functionIFbPvSB_EES_S_E10unregister@Qt_6 6.6.1
 _ZGVZN9QMetaType23registerMutableViewImplI5QListI6QRectFE9QIterableI13QMetaSequenceEEEbSt8functionIFbPvS8_EES_S_E10unregister@Qt_6 6.6.1
 _ZGVZN9QMetaType23registerMutableViewImplI5QListI7QPointFE9QIterableI13QMetaSequenceEEEbSt8functionIFbPvS8_EES_S_E10unregister@Qt_6 6.6.1
 _ZGVZN9QMetaType23registerMutableViewImplI5QListIP15QCandlestickSetE9QIterableI13QMetaSequenceEEEbSt8functionIFbPvS9_EES_S_E10unregister@Qt_6 6.6.1
 _ZGVZN9QMetaType23registerMutableViewImplI5QListIP7QBarSetE9QIterableI13QMetaSequenceEEEbSt8functionIFbPvS9_EES_S_E10unregister@Qt_6 6.6.1
 _ZGVZN9QMetaType23registerMutableViewImplI5QListIP7QBoxSetE9QIterableI13QMetaSequenceEEEbSt8functionIFbPvS9_EES_S_E10unregister@Qt_6 6.6.1
 _ZGVZN9QMetaType23registerMutableViewImplI5QListIP9QPieSliceE9QIterableI13QMetaSequenceEEEbSt8functionIFbPvS9_EES_S_E10unregister@Qt_6 6.6.1
 _ZGVZN9QMetaType23registerMutableViewImplI5QListIdE9QIterableI13QMetaSequenceEEEbSt8functionIFbPvS7_EES_S_E10unregister@Qt_6 6.6.1
 _ZGVZN9QMetaType23registerMutableViewImplI5QListIiE9QIterableI13QMetaSequenceEEEbSt8functionIFbPvS7_EES_S_E10unregister@Qt_6 6.6.1
 _ZN10ChartTitle11setGeometryERK6QRectF@Qt_6_PRIVATE_API 6.6.1
 _ZN10ChartTitle7setTextERK7QString@Qt_6_PRIVATE_API 6.6.1
 _ZN10ChartTitleC1EP13QGraphicsItem@Qt_6_PRIVATE_API 6.6.1
 _ZN10ChartTitleC2EP13QGraphicsItem@Qt_6_PRIVATE_API 6.6.1
 _ZN10ChartTitleD0Ev@Qt_6_PRIVATE_API 6.6.1
 _ZN10ChartTitleD1Ev@Qt_6_PRIVATE_API 6.6.1
 _ZN10ChartTitleD2Ev@Qt_6_PRIVATE_API 6.6.1
 _ZN10QBarSeries11qt_metacallEN11QMetaObject4CallEiPPv@Qt_6 6.6.1
 _ZN10QBarSeries11qt_metacastEPKc@Qt_6 6.6.1
 _ZN10QBarSeries16staticMetaObjectE@Qt_6 6.6.1
 _ZN10QBarSeriesC1EP7QObject@Qt_6 6.6.1
 _ZN10QBarSeriesC2EP7QObject@Qt_6 6.6.1
 _ZN10QBarSeriesD0Ev@Qt_6 6.6.1
 _ZN10QBarSeriesD1Ev@Qt_6 6.6.1
 _ZN10QBarSeriesD2Ev@Qt_6 6.6.1
 _ZN10QChartView11qt_metacallEN11QMetaObject4CallEiPPv@Qt_6 6.6.1
 _ZN10QChartView11qt_metacastEPKc@Qt_6 6.6.1
 _ZN10QChartView11resizeEventEP12QResizeEvent@Qt_6 6.6.1
 _ZN10QChartView13setRubberBandERK6QFlagsINS_10RubberBandEE@Qt_6 6.6.1
 _ZN10QChartView14mouseMoveEventEP11QMouseEvent@Qt_6 6.6.1
 _ZN10QChartView15mousePressEventEP11QMouseEvent@Qt_6 6.6.1
 _ZN10QChartView16staticMetaObjectE@Qt_6 6.6.1
 _ZN10QChartView17mouseReleaseEventEP11QMouseEvent@Qt_6 6.6.1
 _ZN10QChartView8setChartEP6QChart@Qt_6 6.6.1
 _ZN10QChartViewC1EP6QChartP7QWidget@Qt_6 6.6.1
 _ZN10QChartViewC1EP7QWidget@Qt_6 6.6.1
 _ZN10QChartViewC2EP6QChartP7QWidget@Qt_6 6.6.1
 _ZN10QChartViewC2EP7QWidget@Qt_6 6.6.1
 _ZN10QChartViewD0Ev@Qt_6 6.6.1
 _ZN10QChartViewD1Ev@Qt_6 6.6.1
 _ZN10QChartViewD2Ev@Qt_6 6.6.1
 _ZN10QColorAxis10maxChangedEd@Qt_6 6.6.1
 _ZN10QColorAxis10minChangedEd@Qt_6 6.6.1
 _ZN10QColorAxis11qt_metacallEN11QMetaObject4CallEiPPv@Qt_6 6.6.1
 _ZN10QColorAxis11qt_metacastEPKc@Qt_6 6.6.1
 _ZN10QColorAxis11setGradientERK15QLinearGradient@Qt_6 6.6.1
 _ZN10QColorAxis11sizeChangedEd@Qt_6 6.6.1
 _ZN10QColorAxis12rangeChangedEdd@Qt_6 6.6.1
 _ZN10QColorAxis12setAutoRangeEb@Qt_6 6.6.1
 _ZN10QColorAxis12setTickCountEi@Qt_6 6.6.1
 _ZN10QColorAxis15gradientChangedERK15QLinearGradient@Qt_6 6.6.1
 _ZN10QColorAxis16autoRangeChangedEb@Qt_6 6.6.1
 _ZN10QColorAxis16staticMetaObjectE@Qt_6 6.6.1
 _ZN10QColorAxis16tickCountChangedEi@Qt_6 6.6.1
 _ZN10QColorAxis6setMaxEd@Qt_6 6.6.1
 _ZN10QColorAxis6setMinEd@Qt_6 6.6.1
 _ZN10QColorAxis7setSizeEd@Qt_6 6.6.1
 _ZN10QColorAxis8setRangeEdd@Qt_6 6.6.1
 _ZN10QColorAxisC1EP7QObject@Qt_6 6.6.1
 _ZN10QColorAxisC1ER17QColorAxisPrivateP7QObject@Qt_6_PRIVATE_API 6.6.1
 _ZN10QColorAxisC2EP7QObject@Qt_6 6.6.1
 _ZN10QColorAxisC2ER17QColorAxisPrivateP7QObject@Qt_6_PRIVATE_API 6.6.1
 _ZN10QColorAxisD0Ev@Qt_6 6.6.1
 _ZN10QColorAxisD1Ev@Qt_6 6.6.1
 _ZN10QColorAxisD2Ev@Qt_6 6.6.1
 _ZN10QPieSeries10setPieSizeEd@Qt_6 6.6.1
 _ZN10QPieSeries10sumChangedEv@Qt_6 6.6.1
 _ZN10QPieSeries11qt_metacallEN11QMetaObject4CallEiPPv@Qt_6 6.6.1
 _ZN10QPieSeries11qt_metacastEPKc@Qt_6 6.6.1
 _ZN10QPieSeries11setHoleSizeEd@Qt_6 6.6.1
 _ZN10QPieSeries12countChangedEv@Qt_6 6.6.1
 _ZN10QPieSeries13doubleClickedEP9QPieSlice@Qt_6 6.6.1
 _ZN10QPieSeries14setPieEndAngleEd@Qt_6 6.6.1
 _ZN10QPieSeries16setLabelsVisibleEb@Qt_6 6.6.1
 _ZN10QPieSeries16setPieStartAngleEd@Qt_6 6.6.1
 _ZN10QPieSeries16staticMetaObjectE@Qt_6 6.6.1
 _ZN10QPieSeries17setLabelsPositionEN9QPieSlice13LabelPositionE@Qt_6 6.6.1
 _ZN10QPieSeries19setVerticalPositionEd@Qt_6 6.6.1
 _ZN10QPieSeries21setHorizontalPositionEd@Qt_6 6.6.1
 _ZN10QPieSeries4takeEP9QPieSlice@Qt_6 6.6.1
 _ZN10QPieSeries5addedERK5QListIP9QPieSliceE@Qt_6 6.6.1
 _ZN10QPieSeries5clearEv@Qt_6 6.6.1
 _ZN10QPieSeries6appendEP9QPieSlice@Qt_6 6.6.1
 _ZN10QPieSeries6appendERK5QListIP9QPieSliceE@Qt_6 6.6.1
 _ZN10QPieSeries6appendERK7QStringd@Qt_6 6.6.1
 _ZN10QPieSeries6insertEiP9QPieSlice@Qt_6 6.6.1
 _ZN10QPieSeries6removeEP9QPieSlice@Qt_6 6.6.1
 _ZN10QPieSeries7clickedEP9QPieSlice@Qt_6 6.6.1
 _ZN10QPieSeries7hoveredEP9QPieSliceb@Qt_6 6.6.1
 _ZN10QPieSeries7pressedEP9QPieSlice@Qt_6 6.6.1
 _ZN10QPieSeries7removedERK5QListIP9QPieSliceE@Qt_6 6.6.1
 _ZN10QPieSeries8releasedEP9QPieSlice@Qt_6 6.6.1
 _ZN10QPieSeriesC1EP7QObject@Qt_6 6.6.1
 _ZN10QPieSeriesC2EP7QObject@Qt_6 6.6.1
 _ZN10QPieSeriesD0Ev@Qt_6 6.6.1
 _ZN10QPieSeriesD1Ev@Qt_6 6.6.1
 _ZN10QPieSeriesD2Ev@Qt_6 6.6.1
 _ZN10QPieSerieslsEP9QPieSlice@Qt_6 6.6.1
 _ZN10QValueAxis10maxChangedEd@Qt_6 6.6.1
 _ZN10QValueAxis10minChangedEd@Qt_6 6.6.1
 _ZN10QValueAxis11qt_metacallEN11QMetaObject4CallEiPPv@Qt_6 6.6.1
 _ZN10QValueAxis11qt_metacastEPKc@Qt_6 6.6.1
 _ZN10QValueAxis11setTickTypeENS_8TickTypeE@Qt_6 6.6.1
 _ZN10QValueAxis12rangeChangedEdd@Qt_6 6.6.1
 _ZN10QValueAxis12setTickCountEi@Qt_6 6.6.1
 _ZN10QValueAxis13setTickAnchorEd@Qt_6 6.6.1
 _ZN10QValueAxis14setLabelFormatERK7QString@Qt_6 6.6.1
 _ZN10QValueAxis15setTickIntervalEd@Qt_6 6.6.1
 _ZN10QValueAxis15tickTypeChangedENS_8TickTypeE@Qt_6 6.6.1
 _ZN10QValueAxis16applyNiceNumbersEv@Qt_6 6.6.1
 _ZN10QValueAxis16staticMetaObjectE@Qt_6 6.6.1
 _ZN10QValueAxis16tickCountChangedEi@Qt_6 6.6.1
 _ZN10QValueAxis17setMinorTickCountEi@Qt_6 6.6.1
 _ZN10QValueAxis17tickAnchorChangedEd@Qt_6 6.6.1
 _ZN10QValueAxis18labelFormatChangedERK7QString@Qt_6 6.6.1
 _ZN10QValueAxis19tickIntervalChangedEd@Qt_6 6.6.1
 _ZN10QValueAxis21minorTickCountChangedEi@Qt_6 6.6.1
 _ZN10QValueAxis6setMaxEd@Qt_6 6.6.1
 _ZN10QValueAxis6setMinEd@Qt_6 6.6.1
 _ZN10QValueAxis8setRangeEdd@Qt_6 6.6.1
 _ZN10QValueAxisC1EP7QObject@Qt_6 6.6.1
 _ZN10QValueAxisC1ER17QValueAxisPrivateP7QObject@Qt_6_PRIVATE_API 6.6.1
 _ZN10QValueAxisC2EP7QObject@Qt_6 6.6.1
 _ZN10QValueAxisC2ER17QValueAxisPrivateP7QObject@Qt_6_PRIVATE_API 6.6.1
 _ZN10QValueAxisD0Ev@Qt_6 6.6.1
 _ZN10QValueAxisD1Ev@Qt_6 6.6.1
 _ZN10QValueAxisD2Ev@Qt_6 6.6.1
 _ZN10StarMarker7polygonEdddd@Qt_6_PRIVATE_API 6.6.1
 _ZN10StarMarkerC1EddddP16ScatterChartItem@Qt_6_PRIVATE_API 6.6.1
 _ZN10StarMarkerC2EddddP16ScatterChartItem@Qt_6_PRIVATE_API 6.6.1
 _ZN11BoxWhiskers11qt_metacallEN11QMetaObject4CallEiPPv@Qt_6_PRIVATE_API 6.6.1
 _ZN11BoxWhiskers11qt_metacastEPKc@Qt_6_PRIVATE_API 6.6.1
 _ZN11BoxWhiskers11setBoxWidthEd@Qt_6_PRIVATE_API 6.6.1
 _ZN11BoxWhiskers11setGeometryERK6QRectF@Qt_6_PRIVATE_API 6.6.1
 _ZN11BoxWhiskers13doubleClickedEP7QBoxSet@Qt_6_PRIVATE_API 6.6.1
 _ZN11BoxWhiskers14updateGeometryEP14AbstractDomain@Qt_6_PRIVATE_API 6.6.1
 _ZN11BoxWhiskers15hoverEnterEventEP24QGraphicsSceneHoverEvent@Qt_6_PRIVATE_API 6.6.1
 _ZN11BoxWhiskers15hoverLeaveEventEP24QGraphicsSceneHoverEvent@Qt_6_PRIVATE_API 6.6.1
 _ZN11BoxWhiskers15mousePressEventEP24QGraphicsSceneMouseEvent@Qt_6_PRIVATE_API 6.6.1
 _ZN11BoxWhiskers16staticMetaObjectE@Qt_6_PRIVATE_API 6.6.1
 _ZN11BoxWhiskers17mouseReleaseEventEP24QGraphicsSceneMouseEvent@Qt_6_PRIVATE_API 6.6.1
 _ZN11BoxWhiskers21mouseDoubleClickEventEP24QGraphicsSceneMouseEvent@Qt_6_PRIVATE_API 6.6.1
 _ZN11BoxWhiskers5paintEP8QPainterPK24QStyleOptionGraphicsItemP7QWidget@Qt_6_PRIVATE_API 6.6.1
 _ZN11BoxWhiskers6setPenERK4QPen@Qt_6_PRIVATE_API 6.6.1
 _ZN11BoxWhiskers7clickedEP7QBoxSet@Qt_6_PRIVATE_API 6.6.1
 _ZN11BoxWhiskers7hoveredEbP7QBoxSet@Qt_6_PRIVATE_API 6.6.1
 _ZN11BoxWhiskers7pressedEP7QBoxSet@Qt_6_PRIVATE_API 6.6.1
 _ZN11BoxWhiskers8releasedEP7QBoxSet@Qt_6_PRIVATE_API 6.6.1
 _ZN11BoxWhiskers8setBrushERK6QBrush@Qt_6_PRIVATE_API 6.6.1
 _ZN11BoxWhiskers9setLayoutERK15BoxWhiskersData@Qt_6_PRIVATE_API 6.6.1
 _ZN11BoxWhiskersC1EP7QBoxSetP14AbstractDomainP15QGraphicsObject@Qt_6_PRIVATE_API 6.6.1
 _ZN11BoxWhiskersC2EP7QBoxSetP14AbstractDomainP15QGraphicsObject@Qt_6_PRIVATE_API 6.6.1
 _ZN11BoxWhiskersD0Ev@Qt_6_PRIVATE_API 6.6.1
 _ZN11BoxWhiskersD1Ev@Qt_6_PRIVATE_API 6.6.1
 _ZN11BoxWhiskersD2Ev@Qt_6_PRIVATE_API 6.6.1
 _ZN11Candlestick11qt_metacallEN11QMetaObject4CallEiPPv@Qt_6_PRIVATE_API 6.6.1
 _ZN11Candlestick11qt_metacastEPKc@Qt_6_PRIVATE_API 6.6.1
 _ZN11Candlestick12setBodyWidthEd@Qt_6_PRIVATE_API 6.6.1
 _ZN11Candlestick12setCapsWidthEd@Qt_6_PRIVATE_API 6.6.1
 _ZN11Candlestick13doubleClickedEP15QCandlestickSet@Qt_6_PRIVATE_API 6.6.1
 _ZN11Candlestick13setTimePeriodEd@Qt_6_PRIVATE_API 6.6.1
 _ZN11Candlestick14setCapsVisibleEb@Qt_6_PRIVATE_API 6.6.1
 _ZN11Candlestick14updateGeometryEP14AbstractDomain@Qt_6_PRIVATE_API 6.6.1
 _ZN11Candlestick15hoverEnterEventEP24QGraphicsSceneHoverEvent@Qt_6_PRIVATE_API 6.6.1
 _ZN11Candlestick15hoverLeaveEventEP24QGraphicsSceneHoverEvent@Qt_6_PRIVATE_API 6.6.1
 _ZN11Candlestick15mousePressEventEP24QGraphicsSceneMouseEvent@Qt_6_PRIVATE_API 6.6.1
 _ZN11Candlestick16staticMetaObjectE@Qt_6_PRIVATE_API 6.6.1
 _ZN11Candlestick17mouseReleaseEventEP24QGraphicsSceneMouseEvent@Qt_6_PRIVATE_API 6.6.1
 _ZN11Candlestick18setDecreasingColorERK6QColor@Qt_6_PRIVATE_API 6.6.1
 _ZN11Candlestick18setIncreasingColorERK6QColor@Qt_6_PRIVATE_API 6.6.1
 _ZN11Candlestick21mouseDoubleClickEventEP24QGraphicsSceneMouseEvent@Qt_6_PRIVATE_API 6.6.1
 _ZN11Candlestick21setBodyOutlineVisibleEb@Qt_6_PRIVATE_API 6.6.1
 _ZN11Candlestick21setMaximumColumnWidthEd@Qt_6_PRIVATE_API 6.6.1
 _ZN11Candlestick21setMinimumColumnWidthEd@Qt_6_PRIVATE_API 6.6.1
 _ZN11Candlestick5paintEP8QPainterPK24QStyleOptionGraphicsItemP7QWidget@Qt_6_PRIVATE_API 6.6.1
 _ZN11Candlestick6setPenERK4QPen@Qt_6_PRIVATE_API 6.6.1
 _ZN11Candlestick7clickedEP15QCandlestickSet@Qt_6_PRIVATE_API 6.6.1
 _ZN11Candlestick7hoveredEbP15QCandlestickSet@Qt_6_PRIVATE_API 6.6.1
 _ZN11Candlestick7pressedEP15QCandlestickSet@Qt_6_PRIVATE_API 6.6.1
 _ZN11Candlestick8releasedEP15QCandlestickSet@Qt_6_PRIVATE_API 6.6.1
 _ZN11Candlestick8setBrushERK6QBrush@Qt_6_PRIVATE_API 6.6.1
 _ZN11Candlestick9setLayoutERK15CandlestickData@Qt_6_PRIVATE_API 6.6.1
 _ZN11CandlestickC1EP15QCandlestickSetP14AbstractDomainP15QGraphicsObject@Qt_6_PRIVATE_API 6.6.1
 _ZN11CandlestickC2EP15QCandlestickSetP14AbstractDomainP15QGraphicsObject@Qt_6_PRIVATE_API 6.6.1
 _ZN11CandlestickD0Ev@Qt_6_PRIVATE_API 6.6.1
 _ZN11CandlestickD1Ev@Qt_6_PRIVATE_API 6.6.1
 _ZN11CandlestickD2Ev@Qt_6_PRIVATE_API 6.6.1
 _ZN11ChartConfig10m_instanceE@Qt_6_PRIVATE_API 6.6.1
 _ZN11LogXYDomain10attachAxisEP13QAbstractAxis@Qt_6_PRIVATE_API 6.6.1
 _ZN11LogXYDomain10detachAxisEP13QAbstractAxis@Qt_6_PRIVATE_API 6.6.1
 _ZN11LogXYDomain11qt_metacallEN11QMetaObject4CallEiPPv@Qt_6_PRIVATE_API 6.6.1
 _ZN11LogXYDomain11qt_metacastEPKc@Qt_6_PRIVATE_API 6.6.1
 _ZN11LogXYDomain16staticMetaObjectE@Qt_6_PRIVATE_API 6.6.1
 _ZN11LogXYDomain31handleHorizontalAxisBaseChangedEd@Qt_6_PRIVATE_API 6.6.1
 _ZN11LogXYDomain4moveEdd@Qt_6_PRIVATE_API 6.6.1
 _ZN11LogXYDomain6zoomInERK6QRectF@Qt_6_PRIVATE_API 6.6.1
 _ZN11LogXYDomain7zoomOutERK6QRectF@Qt_6_PRIVATE_API 6.6.1
 _ZN11LogXYDomain8setRangeEdddd@Qt_6_PRIVATE_API 6.6.1
 _ZN11LogXYDomainC1EP7QObject@Qt_6_PRIVATE_API 6.6.1
 _ZN11LogXYDomainC2EP7QObject@Qt_6_PRIVATE_API 6.6.1
 _ZN11LogXYDomainD0Ev@Qt_6_PRIVATE_API 6.6.1
 _ZN11LogXYDomainD1Ev@Qt_6_PRIVATE_API 6.6.1
 _ZN11LogXYDomainD2Ev@Qt_6_PRIVATE_API 6.6.1
 _ZN11PolarDomain11qt_metacallEN11QMetaObject4CallEiPPv@Qt_6_PRIVATE_API 6.6.1
 _ZN11PolarDomain11qt_metacastEPKc@Qt_6_PRIVATE_API 6.6.1
 _ZN11PolarDomain16staticMetaObjectE@Qt_6_PRIVATE_API 6.6.1
 _ZN11PolarDomain7setSizeERK6QSizeF@Qt_6_PRIVATE_API 6.6.1
 _ZN11PolarDomainC1EP7QObject@Qt_6_PRIVATE_API 6.6.1
 _ZN11PolarDomainC2EP7QObject@Qt_6_PRIVATE_API 6.6.1
 _ZN11PolarDomainD0Ev@Qt_6_PRIVATE_API 6.6.1
 _ZN11PolarDomainD1Ev@Qt_6_PRIVATE_API 6.6.1
 _ZN11PolarDomainD2Ev@Qt_6_PRIVATE_API 6.6.1
 _ZN11QAreaSeries11qt_metacallEN11QMetaObject4CallEiPPv@Qt_6 6.6.1
 _ZN11QAreaSeries11qt_metacastEPKc@Qt_6 6.6.1
 _ZN11QAreaSeries12colorChangedE6QColor@Qt_6 6.6.1
 _ZN11QAreaSeries13doubleClickedERK7QPointF@Qt_6 6.6.1
 _ZN11QAreaSeries14setBorderColorERK6QColor@Qt_6 6.6.1
 _ZN11QAreaSeries14setLowerSeriesEP11QLineSeries@Qt_6 6.6.1
 _ZN11QAreaSeries14setUpperSeriesEP11QLineSeries@Qt_6 6.6.1
 _ZN11QAreaSeries16setPointsVisibleEb@Qt_6 6.6.1
 _ZN11QAreaSeries16staticMetaObjectE@Qt_6 6.6.1
 _ZN11QAreaSeries18borderColorChangedE6QColor@Qt_6 6.6.1
 _ZN11QAreaSeries18setPointLabelsFontERK5QFont@Qt_6 6.6.1
 _ZN11QAreaSeries19setPointLabelsColorERK6QColor@Qt_6 6.6.1
 _ZN11QAreaSeries20setPointLabelsFormatERK7QString@Qt_6 6.6.1
 _ZN11QAreaSeries21setPointLabelsVisibleEb@Qt_6 6.6.1
 _ZN11QAreaSeries22pointLabelsFontChangedERK5QFont@Qt_6 6.6.1
 _ZN11QAreaSeries22setPointLabelsClippingEb@Qt_6 6.6.1
 _ZN11QAreaSeries23pointLabelsColorChangedERK6QColor@Qt_6 6.6.1
 _ZN11QAreaSeries24pointLabelsFormatChangedERK7QString@Qt_6 6.6.1
 _ZN11QAreaSeries26pointLabelsClippingChangedEb@Qt_6 6.6.1
 _ZN11QAreaSeries28pointLabelsVisibilityChangedEb@Qt_6 6.6.1
 _ZN11QAreaSeries6setPenERK4QPen@Qt_6 6.6.1
 _ZN11QAreaSeries7clickedERK7QPointF@Qt_6 6.6.1
 _ZN11QAreaSeries7hoveredERK7QPointFb@Qt_6 6.6.1
 _ZN11QAreaSeries7pressedERK7QPointF@Qt_6 6.6.1
 _ZN11QAreaSeries8releasedERK7QPointF@Qt_6 6.6.1
 _ZN11QAreaSeries8selectedEv@Qt_6 6.6.1
 _ZN11QAreaSeries8setBrushERK6QBrush@Qt_6 6.6.1
 _ZN11QAreaSeries8setColorERK6QColor@Qt_6 6.6.1
 _ZN11QAreaSeriesC1EP11QLineSeriesS1_@Qt_6 6.6.1
 _ZN11QAreaSeriesC1EP7QObject@Qt_6 6.6.1
 _ZN11QAreaSeriesC2EP11QLineSeriesS1_@Qt_6 6.6.1
 _ZN11QAreaSeriesC2EP7QObject@Qt_6 6.6.1
 _ZN11QAreaSeriesD0Ev@Qt_6 6.6.1
 _ZN11QAreaSeriesD1Ev@Qt_6 6.6.1
 _ZN11QAreaSeriesD2Ev@Qt_6 6.6.1
 _ZN11QLineSeries11qt_metacallEN11QMetaObject4CallEiPPv@Qt_6 6.6.1
 _ZN11QLineSeries11qt_metacastEPKc@Qt_6 6.6.1
 _ZN11QLineSeries16staticMetaObjectE@Qt_6 6.6.1
 _ZN11QLineSeriesC1EP7QObject@Qt_6 6.6.1
 _ZN11QLineSeriesC1ER18QLineSeriesPrivateP7QObject@Qt_6_PRIVATE_API 6.6.1
 _ZN11QLineSeriesC2EP7QObject@Qt_6 6.6.1
 _ZN11QLineSeriesC2ER18QLineSeriesPrivateP7QObject@Qt_6_PRIVATE_API 6.6.1
 _ZN11QLineSeriesD0Ev@Qt_6 6.6.1
 _ZN11QLineSeriesD1Ev@Qt_6 6.6.1
 _ZN11QLineSeriesD2Ev@Qt_6 6.6.1
 _ZN11QPolarChart11qt_metacallEN11QMetaObject4CallEiPPv@Qt_6 6.6.1
 _ZN11QPolarChart11qt_metacastEPKc@Qt_6 6.6.1
 _ZN11QPolarChart16staticMetaObjectE@Qt_6 6.6.1
 _ZN11QPolarChart20axisPolarOrientationEP13QAbstractAxis@Qt_6 6.6.1
 _ZN11QPolarChart7addAxisEP13QAbstractAxisNS_16PolarOrientationE@Qt_6 6.6.1
 _ZN11QPolarChartC1EP13QGraphicsItem6QFlagsIN2Qt10WindowTypeEE@Qt_6 6.6.1
 _ZN11QPolarChartC2EP13QGraphicsItem6QFlagsIN2Qt10WindowTypeEE@Qt_6 6.6.1
 _ZN11QPolarChartD0Ev@Qt_6 6.6.1
 _ZN11QPolarChartD1Ev@Qt_6 6.6.1
 _ZN11QPolarChartD2Ev@Qt_6 6.6.1
 _ZN11XLogYDomain10attachAxisEP13QAbstractAxis@Qt_6_PRIVATE_API 6.6.1
 _ZN11XLogYDomain10detachAxisEP13QAbstractAxis@Qt_6_PRIVATE_API 6.6.1
 _ZN11XLogYDomain11qt_metacallEN11QMetaObject4CallEiPPv@Qt_6_PRIVATE_API 6.6.1
 _ZN11XLogYDomain11qt_metacastEPKc@Qt_6_PRIVATE_API 6.6.1
 _ZN11XLogYDomain16staticMetaObjectE@Qt_6_PRIVATE_API 6.6.1
 _ZN11XLogYDomain29handleVerticalAxisBaseChangedEd@Qt_6_PRIVATE_API 6.6.1
 _ZN11XLogYDomain4moveEdd@Qt_6_PRIVATE_API 6.6.1
 _ZN11XLogYDomain6zoomInERK6QRectF@Qt_6_PRIVATE_API 6.6.1
 _ZN11XLogYDomain7zoomOutERK6QRectF@Qt_6_PRIVATE_API 6.6.1
 _ZN11XLogYDomain8setRangeEdddd@Qt_6_PRIVATE_API 6.6.1
 _ZN11XLogYDomainC1EP7QObject@Qt_6_PRIVATE_API 6.6.1
 _ZN11XLogYDomainC2EP7QObject@Qt_6_PRIVATE_API 6.6.1
 _ZN11XLogYDomainD0Ev@Qt_6_PRIVATE_API 6.6.1
 _ZN11XLogYDomainD1Ev@Qt_6_PRIVATE_API 6.6.1
 _ZN11XLogYDomainD2Ev@Qt_6_PRIVATE_API 6.6.1
 _ZN11XYAnimation11updateStateEN18QAbstractAnimation5StateES1_@Qt_6_PRIVATE_API 6.6.1
 _ZN11XYAnimation18updateCurrentValueERK8QVariant@Qt_6_PRIVATE_API 6.6.1
 _ZN11XYAnimation5setupERK5QListI7QPointFES4_i@Qt_6_PRIVATE_API 6.6.1
 _ZN11XYAnimationC1EP7XYChartiR12QEasingCurve@Qt_6_PRIVATE_API 6.6.1
 _ZN11XYAnimationC2EP7XYChartiR12QEasingCurve@Qt_6_PRIVATE_API 6.6.1
 _ZN11XYAnimationD0Ev@Qt_6_PRIVATE_API 6.6.1
 _ZN11XYAnimationD1Ev@Qt_6_PRIVATE_API 6.6.1
 _ZN11XYAnimationD2Ev@Qt_6_PRIVATE_API 6.6.1
 _ZN12BarAnimation11qt_metacallEN11QMetaObject4CallEiPPv@Qt_6_PRIVATE_API 6.6.1
 _ZN12BarAnimation11qt_metacastEPKc@Qt_6_PRIVATE_API 6.6.1
 _ZN12BarAnimation16staticMetaObjectE@Qt_6_PRIVATE_API 6.6.1
 _ZN12BarAnimation18updateCurrentValueERK8QVariant@Qt_6_PRIVATE_API 6.6.1
 _ZN12BarAnimation5setupERK5QListI6QRectFES4_@Qt_6_PRIVATE_API 6.6.1
 _ZN12BarAnimationC1EP20AbstractBarChartItemiR12QEasingCurve@Qt_6_PRIVATE_API 6.6.1
 _ZN12BarAnimationC2EP20AbstractBarChartItemiR12QEasingCurve@Qt_6_PRIVATE_API 6.6.1
 _ZN12BarAnimationD0Ev@Qt_6_PRIVATE_API 6.6.1
 _ZN12BarAnimationD1Ev@Qt_6_PRIVATE_API 6.6.1
 _ZN12BarAnimationD2Ev@Qt_6_PRIVATE_API 6.6.1
 _ZN12BarChartItem11qt_metacallEN11QMetaObject4CallEiPPv@Qt_6_PRIVATE_API 6.6.1
 _ZN12BarChartItem11qt_metacastEPKc@Qt_6_PRIVATE_API 6.6.1
 _ZN12BarChartItem12topLeftPointEiiidd@Qt_6_PRIVATE_API 6.6.1
 _ZN12BarChartItem14positionLabelsEv@Qt_6_PRIVATE_API 6.6.1
 _ZN12BarChartItem15calculateLayoutEv@Qt_6_PRIVATE_API 6.6.1
 _ZN12BarChartItem16bottomRightPointEiiidd@Qt_6_PRIVATE_API 6.6.1
 _ZN12BarChartItem16initializeLayoutEiiib@Qt_6_PRIVATE_API 6.6.1
 _ZN12BarChartItem16staticMetaObjectE@Qt_6_PRIVATE_API 6.6.1
 _ZN12BarChartItem27handleLabelsPositionChangedEv@Qt_6_PRIVATE_API 6.6.1
 _ZN12BarChartItemC1EP18QAbstractBarSeriesP13QGraphicsItem@Qt_6_PRIVATE_API 6.6.1
 _ZN12BarChartItemC2EP18QAbstractBarSeriesP13QGraphicsItem@Qt_6_PRIVATE_API 6.6.1
 _ZN12ChartDataSet10attachAxisEP15QAbstractSeriesP13QAbstractAxis@Qt_6_PRIVATE_API 6.6.1
 _ZN12ChartDataSet10createAxesE6QFlagsIN13QAbstractAxis8AxisTypeEEN2Qt11OrientationE@Qt_6_PRIVATE_API 6.6.1
 _ZN12ChartDataSet10detachAxisEP15QAbstractSeriesP13QAbstractAxis@Qt_6_PRIVATE_API 6.6.1
 _ZN12ChartDataSet10mapToValueERK7QPointFP15QAbstractSeries@Qt_6_PRIVATE_API 6.6.1
 _ZN12ChartDataSet10removeAxisEP13QAbstractAxis@Qt_6_PRIVATE_API 6.6.1
 _ZN12ChartDataSet11axisRemovedEP13QAbstractAxis@Qt_6_PRIVATE_API 6.6.1
 _ZN12ChartDataSet11qt_metacallEN11QMetaObject4CallEiPPv@Qt_6_PRIVATE_API 6.6.1
 _ZN12ChartDataSet11qt_metacastEPKc@Qt_6_PRIVATE_API 6.6.1
 _ZN12ChartDataSet11seriesAddedEP15QAbstractSeries@Qt_6_PRIVATE_API 6.6.1
 _ZN12ChartDataSet12createDomainEN14AbstractDomain10DomainTypeE@Qt_6_PRIVATE_API 6.6.1
 _ZN12ChartDataSet12removeSeriesEP15QAbstractSeries@Qt_6_PRIVATE_API 6.6.1
 _ZN12ChartDataSet12scrollDomainEdd@Qt_6_PRIVATE_API 6.6.1
 _ZN12ChartDataSet12selectDomainERK5QListIP13QAbstractAxisE@Qt_6_PRIVATE_API 6.6.1
 _ZN12ChartDataSet12zoomInDomainERK6QRectF@Qt_6_PRIVATE_API 6.6.1
 _ZN12ChartDataSet13deleteAllAxesEv@Qt_6_PRIVATE_API 6.6.1
 _ZN12ChartDataSet13mapToPositionERK7QPointFP15QAbstractSeries@Qt_6_PRIVATE_API 6.6.1
 _ZN12ChartDataSet13seriesRemovedEP15QAbstractSeries@Qt_6_PRIVATE_API 6.6.1
 _ZN12ChartDataSet13zoomOutDomainERK6QRectF@Qt_6_PRIVATE_API 6.6.1
 _ZN12ChartDataSet14isZoomedDomainEv@Qt_6_PRIVATE_API 6.6.1
 _ZN12ChartDataSet14reverseChangedEv@Qt_6_PRIVATE_API 6.6.1
 _ZN12ChartDataSet15deleteAllSeriesEv@Qt_6_PRIVATE_API 6.6.1
 _ZN12ChartDataSet15zoomResetDomainEv@Qt_6_PRIVATE_API 6.6.1
 _ZN12ChartDataSet16staticMetaObjectE@Qt_6_PRIVATE_API 6.6.1
 _ZN12ChartDataSet17createDefaultAxesEv@Qt_6_PRIVATE_API 6.6.1
 _ZN12ChartDataSet19findMinMaxForSeriesERK5QListIP15QAbstractSeriesE6QFlagsIN2Qt11OrientationEERdSA_@Qt_6_PRIVATE_API 6.6.1
 _ZN12ChartDataSet7addAxisEP13QAbstractAxis6QFlagsIN2Qt13AlignmentFlagEE@Qt_6_PRIVATE_API 6.6.1
 _ZN12ChartDataSet9addSeriesEP15QAbstractSeries@Qt_6_PRIVATE_API 6.6.1
 _ZN12ChartDataSet9axisAddedEP13QAbstractAxis@Qt_6_PRIVATE_API 6.6.1
 _ZN12ChartDataSetC1EP6QChart@Qt_6_PRIVATE_API 6.6.1
 _ZN12ChartDataSetC2EP6QChart@Qt_6_PRIVATE_API 6.6.1
 _ZN12ChartDataSetD0Ev@Qt_6_PRIVATE_API 6.6.1
 _ZN12ChartDataSetD1Ev@Qt_6_PRIVATE_API 6.6.1
 _ZN12ChartDataSetD2Ev@Qt_6_PRIVATE_API 6.6.1
 _ZN12ChartElement10setDataSetEP12ChartDataSet@Qt_6_PRIVATE_API 6.6.1
 _ZN12ChartElement12setPresenterEP14ChartPresenter@Qt_6_PRIVATE_API 6.6.1
 _ZN12ChartElement15setThemeManagerEP17ChartThemeManager@Qt_6_PRIVATE_API 6.6.1
 _ZN12ChartElementC1EP13QGraphicsItem@Qt_6_PRIVATE_API 6.6.1
 _ZN12ChartElementC2EP13QGraphicsItem@Qt_6_PRIVATE_API 6.6.1
 _ZN12LegendLayout10invalidateEv@Qt_6_PRIVATE_API 6.6.1
 _ZN12LegendLayout11setGeometryERK6QRectF@Qt_6_PRIVATE_API 6.6.1
 _ZN12LegendLayout15widthLongerThanEPKNS_17LegendWidthStructES2_@Qt_6_PRIVATE_API 6.6.1
 _ZN12LegendLayout19setAttachedGeometryERK6QRectF@Qt_6_PRIVATE_API 6.6.1
 _ZN12LegendLayout20setDettachedGeometryERK6QRectF@Qt_6_PRIVATE_API 6.6.1
 _ZN12LegendLayout9setOffsetEdd@Qt_6_PRIVATE_API 6.6.1
 _ZN12LegendLayoutC1EP7QLegend@Qt_6_PRIVATE_API 6.6.1
 _ZN12LegendLayoutC2EP7QLegend@Qt_6_PRIVATE_API 6.6.1
 _ZN12LegendLayoutD0Ev@Qt_6_PRIVATE_API 6.6.1
 _ZN12LegendLayoutD1Ev@Qt_6_PRIVATE_API 6.6.1
 _ZN12LegendLayoutD2Ev@Qt_6_PRIVATE_API 6.6.1
 _ZN12PieAnimation11qt_metacallEN11QMetaObject4CallEiPPv@Qt_6_PRIVATE_API 6.6.1
 _ZN12PieAnimation11qt_metacastEPKc@Qt_6_PRIVATE_API 6.6.1
 _ZN12PieAnimation11removeSliceEP12PieSliceItem@Qt_6_PRIVATE_API 6.6.1
 _ZN12PieAnimation11updateValueEP12PieSliceItemRK12PieSliceData@Qt_6_PRIVATE_API 6.6.1
 _ZN12PieAnimation16staticMetaObjectE@Qt_6_PRIVATE_API 6.6.1
 _ZN12PieAnimation18updateCurrentValueERK8QVariant@Qt_6_PRIVATE_API 6.6.1
 _ZN12PieAnimation8addSliceEP12PieSliceItemRK12PieSliceDatab@Qt_6_PRIVATE_API 6.6.1
 _ZN12PieAnimationC1EP12PieChartItemiR12QEasingCurve@Qt_6_PRIVATE_API 6.6.1
 _ZN12PieAnimationC2EP12PieChartItemiR12QEasingCurve@Qt_6_PRIVATE_API 6.6.1
 _ZN12PieAnimationD0Ev@Qt_6_PRIVATE_API 6.6.1
 _ZN12PieAnimationD1Ev@Qt_6_PRIVATE_API 6.6.1
 _ZN12PieAnimationD2Ev@Qt_6_PRIVATE_API 6.6.1
 _ZN12PieChartItem11qt_metacallEN11QMetaObject4CallEiPPv@Qt_6_PRIVATE_API 6.6.1
 _ZN12PieChartItem11qt_metacastEPKc@Qt_6_PRIVATE_API 6.6.1
 _ZN12PieChartItem12setAnimationEP12PieAnimation@Qt_6_PRIVATE_API 6.6.1
 _ZN12PieChartItem12updateLayoutEv@Qt_6_PRIVATE_API 6.6.1
 _ZN12PieChartItem15hoverEnterEventEP24QGraphicsSceneHoverEvent@Qt_6_PRIVATE_API 6.6.1
 _ZN12PieChartItem15hoverLeaveEventEP24QGraphicsSceneHoverEvent@Qt_6_PRIVATE_API 6.6.1
 _ZN12PieChartItem15mousePressEventEP24QGraphicsSceneMouseEvent@Qt_6_PRIVATE_API 6.6.1
 _ZN12PieChartItem16staticMetaObjectE@Qt_6_PRIVATE_API 6.6.1
 _ZN12PieChartItem17handleSlicesAddedERK5QListIP9QPieSliceE@Qt_6_PRIVATE_API 6.6.1
 _ZN12PieChartItem17mouseReleaseEventEP24QGraphicsSceneMouseEvent@Qt_6_PRIVATE_API 6.6.1
 _ZN12PieChartItem18handleSliceChangedEv@Qt_6_PRIVATE_API 6.6.1
 _ZN12PieChartItem19handleDomainUpdatedEv@Qt_6_PRIVATE_API 6.6.1
 _ZN12PieChartItem19handleSlicesRemovedERK5QListIP9QPieSliceE@Qt_6_PRIVATE_API 6.6.1
 _ZN12PieChartItem19updateSliceGeometryEP9QPieSlice@Qt_6_PRIVATE_API 6.6.1
 _ZN12PieChartItem20handleOpacityChangedEv@Qt_6_PRIVATE_API 6.6.1
 _ZN12PieChartItem21mouseDoubleClickEventEP24QGraphicsSceneMouseEvent@Qt_6_PRIVATE_API 6.6.1
 _ZN12PieChartItem26handleSeriesVisibleChangedEv@Qt_6_PRIVATE_API 6.6.1
 _ZN12PieChartItem7cleanupEv@Qt_6_PRIVATE_API 6.6.1
 _ZN12PieChartItemC1EP10QPieSeriesP13QGraphicsItem@Qt_6_PRIVATE_API 6.6.1
 _ZN12PieChartItemC2EP10QPieSeriesP13QGraphicsItem@Qt_6_PRIVATE_API 6.6.1
 _ZN12PieChartItemD0Ev@Qt_6_PRIVATE_API 6.6.1
 _ZN12PieChartItemD1Ev@Qt_6_PRIVATE_API 6.6.1
 _ZN12PieChartItemD2Ev@Qt_6_PRIVATE_API 6.6.1
 _ZN12PieSliceItem11qt_metacallEN11QMetaObject4CallEiPPv@Qt_6_PRIVATE_API 6.6.1
 _ZN12PieSliceItem11qt_metacastEPKc@Qt_6_PRIVATE_API 6.6.1
 _ZN12PieSliceItem11sliceCenterE7QPointFdP9QPieSlice@Qt_6_PRIVATE_API 6.6.1
 _ZN12PieSliceItem12labelArmPathE7QPointFdddPS0_@Qt_6_PRIVATE_API 6.6.1
 _ZN12PieSliceItem13doubleClickedE6QFlagsIN2Qt11MouseButtonEE@Qt_6_PRIVATE_API 6.6.1
 _ZN12PieSliceItem14updateGeometryEv@Qt_6_PRIVATE_API 6.6.1
 _ZN12PieSliceItem15hoverEnterEventEP24QGraphicsSceneHoverEvent@Qt_6_PRIVATE_API 6.6.1
 _ZN12PieSliceItem15hoverLeaveEventEP24QGraphicsSceneHoverEvent@Qt_6_PRIVATE_API 6.6.1
 _ZN12PieSliceItem15mousePressEventEP24QGraphicsSceneMouseEvent@Qt_6_PRIVATE_API 6.6.1
 _ZN12PieSliceItem16staticMetaObjectE@Qt_6_PRIVATE_API 6.6.1
 _ZN12PieSliceItem17mouseReleaseEventEP24QGraphicsSceneMouseEvent@Qt_6_PRIVATE_API 6.6.1
 _ZN12PieSliceItem21mouseDoubleClickEventEP24QGraphicsSceneMouseEvent@Qt_6_PRIVATE_API 6.6.1
 _ZN12PieSliceItem5paintEP8QPainterPK24QStyleOptionGraphicsItemP7QWidget@Qt_6_PRIVATE_API 6.6.1
 _ZN12PieSliceItem7clickedE6QFlagsIN2Qt11MouseButtonEE@Qt_6_PRIVATE_API 6.6.1
 _ZN12PieSliceItem7hoveredEb@Qt_6_PRIVATE_API 6.6.1
 _ZN12PieSliceItem7pressedE6QFlagsIN2Qt11MouseButtonEE@Qt_6_PRIVATE_API 6.6.1
 _ZN12PieSliceItem8releasedE6QFlagsIN2Qt11MouseButtonEE@Qt_6_PRIVATE_API 6.6.1
 _ZN12PieSliceItem9setLayoutERK12PieSliceData@Qt_6_PRIVATE_API 6.6.1
 _ZN12PieSliceItem9slicePathE7QPointFdddPdPS0_@Qt_6_PRIVATE_API 6.6.1
 _ZN12PieSliceItemC1EP13QGraphicsItem@Qt_6_PRIVATE_API 6.6.1
 _ZN12PieSliceItemC2EP13QGraphicsItem@Qt_6_PRIVATE_API 6.6.1
 _ZN12PieSliceItemD0Ev@Qt_6_PRIVATE_API 6.6.1
 _ZN12PieSliceItemD1Ev@Qt_6_PRIVATE_API 6.6.1
 _ZN12PieSliceItemD2Ev@Qt_6_PRIVATE_API 6.6.1
 _ZN12ScrollTicker10timerEventEP11QTimerEvent@Qt_6_PRIVATE_API 6.6.1
 _ZN12ScrollTicker11qt_metacallEN11QMetaObject4CallEiPPv@Qt_6_PRIVATE_API 6.6.1
 _ZN12ScrollTicker11qt_metacastEPKc@Qt_6_PRIVATE_API 6.6.1
 _ZN12ScrollTicker16staticMetaObjectE@Qt_6_PRIVATE_API 6.6.1
 _ZN12ScrollTicker4stopEv@Qt_6_PRIVATE_API 6.6.1
 _ZN12ScrollTicker5startEi@Qt_6_PRIVATE_API 6.6.1
 _ZN12ScrollTickerC1EP8ScrollerP7QObject@Qt_6_PRIVATE_API 6.6.1
 _ZN12ScrollTickerC2EP8ScrollerP7QObject@Qt_6_PRIVATE_API 6.6.1
 _ZN12VerticalAxis14updateGeometryEv@Qt_6_PRIVATE_API 6.6.1
 _ZN12VerticalAxis23updateMinorTickGeometryEv@Qt_6_PRIVATE_API 6.6.1
 _ZN12VerticalAxisC1EP13QAbstractAxisP13QGraphicsItemb@Qt_6_PRIVATE_API 6.6.1
 _ZN12VerticalAxisC2EP13QAbstractAxisP13QGraphicsItemb@Qt_6_PRIVATE_API 6.6.1
 _ZN12VerticalAxisD0Ev@Qt_6_PRIVATE_API 6.6.1
 _ZN12VerticalAxisD1Ev@Qt_6_PRIVATE_API 6.6.1
 _ZN12VerticalAxisD2Ev@Qt_6_PRIVATE_API 6.6.1
 _ZN13AreaChartItem10updatePathEv@Qt_6_PRIVATE_API 6.6.1
 _ZN13AreaChartItem11qt_metacallEN11QMetaObject4CallEiPPv@Qt_6_PRIVATE_API 6.6.1
 _ZN13AreaChartItem11qt_metacastEPKc@Qt_6_PRIVATE_API 6.6.1
 _ZN13AreaChartItem12setPresenterEP14ChartPresenter@Qt_6_PRIVATE_API 6.6.1
 _ZN13AreaChartItem13doubleClickedERK7QPointF@Qt_6_PRIVATE_API 6.6.1
 _ZN13AreaChartItem13handleUpdatedEv@Qt_6_PRIVATE_API 6.6.1
 _ZN13AreaChartItem14setLowerSeriesEP11QLineSeries@Qt_6_PRIVATE_API 6.6.1
 _ZN13AreaChartItem14setUpperSeriesEP11QLineSeries@Qt_6_PRIVATE_API 6.6.1
 _ZN13AreaChartItem15hoverEnterEventEP24QGraphicsSceneHoverEvent@Qt_6_PRIVATE_API 6.6.1
 _ZN13AreaChartItem15hoverLeaveEventEP24QGraphicsSceneHoverEvent@Qt_6_PRIVATE_API 6.6.1
 _ZN13AreaChartItem15mousePressEventEP24QGraphicsSceneMouseEvent@Qt_6_PRIVATE_API 6.6.1
 _ZN13AreaChartItem16staticMetaObjectE@Qt_6_PRIVATE_API 6.6.1
 _ZN13AreaChartItem17mouseReleaseEventEP24QGraphicsSceneMouseEvent@Qt_6_PRIVATE_API 6.6.1
 _ZN13AreaChartItem19fixEdgeSeriesDomainEP13LineChartItem@Qt_6_PRIVATE_API 6.6.1
 _ZN13AreaChartItem19handleDomainUpdatedEv@Qt_6_PRIVATE_API 6.6.1
 _ZN13AreaChartItem21mouseDoubleClickEventEP24QGraphicsSceneMouseEvent@Qt_6_PRIVATE_API 6.6.1
 _ZN13AreaChartItem5paintEP8QPainterPK24QStyleOptionGraphicsItemP7QWidget@Qt_6_PRIVATE_API 6.6.1
 _ZN13AreaChartItem7clickedERK7QPointF@Qt_6_PRIVATE_API 6.6.1
 _ZN13AreaChartItem7hoveredERK7QPointFb@Qt_6_PRIVATE_API 6.6.1
 _ZN13AreaChartItem7pressedERK7QPointF@Qt_6_PRIVATE_API 6.6.1
 _ZN13AreaChartItem8releasedERK7QPointF@Qt_6_PRIVATE_API 6.6.1
 _ZN13AreaChartItemC1EP11QAreaSeriesP13QGraphicsItem@Qt_6_PRIVATE_API 6.6.1
 _ZN13AreaChartItemC2EP11QAreaSeriesP13QGraphicsItem@Qt_6_PRIVATE_API 6.6.1
 _ZN13AreaChartItemD0Ev@Qt_6_PRIVATE_API 6.6.1
 _ZN13AreaChartItemD1Ev@Qt_6_PRIVATE_API 6.6.1
 _ZN13AreaChartItemD2Ev@Qt_6_PRIVATE_API 6.6.1
 _ZN13AxisAnimation16setAnimationTypeENS_9AnimationE@Qt_6_PRIVATE_API 6.6.1
 _ZN13AxisAnimation17setAnimationPointERK7QPointF@Qt_6_PRIVATE_API 6.6.1
 _ZN13AxisAnimation18updateCurrentValueERK8QVariant@Qt_6_PRIVATE_API 6.6.1
 _ZN13AxisAnimation9setValuesER5QListIdERKS1_@Qt_6_PRIVATE_API 6.6.1
 _ZN13AxisAnimationC1EP16ChartAxisElementiR12QEasingCurve@Qt_6_PRIVATE_API 6.6.1
 _ZN13AxisAnimationC2EP16ChartAxisElementiR12QEasingCurve@Qt_6_PRIVATE_API 6.6.1
 _ZN13AxisAnimationD0Ev@Qt_6_PRIVATE_API 6.6.1
 _ZN13AxisAnimationD1Ev@Qt_6_PRIVATE_API 6.6.1
 _ZN13AxisAnimationD2Ev@Qt_6_PRIVATE_API 6.6.1
 _ZN13LineChartItem11qt_metacallEN11QMetaObject4CallEiPPv@Qt_6_PRIVATE_API 6.6.1
 _ZN13LineChartItem11qt_metacastEPKc@Qt_6_PRIVATE_API 6.6.1
 _ZN13LineChartItem14updateGeometryEv@Qt_6_PRIVATE_API 6.6.1
 _ZN13LineChartItem15hoverEnterEventEP24QGraphicsSceneHoverEvent@Qt_6_PRIVATE_API 6.6.1
 _ZN13LineChartItem15hoverLeaveEventEP24QGraphicsSceneHoverEvent@Qt_6_PRIVATE_API 6.6.1
 _ZN13LineChartItem15mousePressEventEP24QGraphicsSceneMouseEvent@Qt_6_PRIVATE_API 6.6.1
 _ZN13LineChartItem16staticMetaObjectE@Qt_6_PRIVATE_API 6.6.1
 _ZN13LineChartItem17mouseReleaseEventEP24QGraphicsSceneMouseEvent@Qt_6_PRIVATE_API 6.6.1
 _ZN13LineChartItem19handleSeriesUpdatedEv@Qt_6_PRIVATE_API 6.6.1
 _ZN13LineChartItem21mouseDoubleClickEventEP24QGraphicsSceneMouseEvent@Qt_6_PRIVATE_API 6.6.1
 _ZN13LineChartItem5paintEP8QPainterPK24QStyleOptionGraphicsItemP7QWidget@Qt_6_PRIVATE_API 6.6.1
 _ZN13LineChartItemC1EP11QLineSeriesP13QGraphicsItem@Qt_6_PRIVATE_API 6.6.1
 _ZN13LineChartItemC2EP11QLineSeriesP13QGraphicsItem@Qt_6_PRIVATE_API 6.6.1
 _ZN13QAbstractAxis10setLinePenERK4QPen@Qt_6 6.6.1
 _ZN13QAbstractAxis10setReverseEb@Qt_6 6.6.1
 _ZN13QAbstractAxis10setVisibleEb@Qt_6 6.6.1
 _ZN13QAbstractAxis11qt_metacallEN11QMetaObject4CallEiPPv@Qt_6 6.6.1
 _ZN13QAbstractAxis11qt_metacastEPKc@Qt_6 6.6.1
 _ZN13QAbstractAxis12colorChangedE6QColor@Qt_6 6.6.1
 _ZN13QAbstractAxis12setShadesPenERK4QPen@Qt_6 6.6.1
 _ZN13QAbstractAxis12setTitleFontERK5QFont@Qt_6 6.6.1
 _ZN13QAbstractAxis12setTitleTextERK7QString@Qt_6 6.6.1
 _ZN13QAbstractAxis13gridLineColorEv@Qt_6 6.6.1
 _ZN13QAbstractAxis13setLabelsFontERK5QFont@Qt_6 6.6.1
 _ZN13QAbstractAxis13setTitleBrushERK6QBrush@Qt_6 6.6.1
 _ZN13QAbstractAxis14linePenChangedERK4QPen@Qt_6 6.6.1
 _ZN13QAbstractAxis14reverseChangedEb@Qt_6 6.6.1
 _ZN13QAbstractAxis14setGridLinePenERK4QPen@Qt_6 6.6.1
 _ZN13QAbstractAxis14setLabelsAngleEi@Qt_6 6.6.1
 _ZN13QAbstractAxis14setLabelsBrushERK6QBrush@Qt_6 6.6.1
 _ZN13QAbstractAxis14setLabelsColorE6QColor@Qt_6 6.6.1
 _ZN13QAbstractAxis14setLineVisibleEb@Qt_6 6.6.1
 _ZN13QAbstractAxis14setShadesBrushERK6QBrush@Qt_6 6.6.1
 _ZN13QAbstractAxis14setShadesColorE6QColor@Qt_6 6.6.1
 _ZN13QAbstractAxis14visibleChangedEb@Qt_6 6.6.1
 _ZN13QAbstractAxis15setLinePenColorE6QColor@Qt_6 6.6.1
 _ZN13QAbstractAxis15setTitleVisibleEb@Qt_6 6.6.1
 _ZN13QAbstractAxis16setGridLineColorERK6QColor@Qt_6 6.6.1
 _ZN13QAbstractAxis16setLabelsVisibleEb@Qt_6 6.6.1
 _ZN13QAbstractAxis16setShadesVisibleEb@Qt_6 6.6.1
 _ZN13QAbstractAxis16shadesPenChangedERK4QPen@Qt_6 6.6.1
 _ZN13QAbstractAxis16staticMetaObjectE@Qt_6 6.6.1
 _ZN13QAbstractAxis16titleFontChangedERK5QFont@Qt_6 6.6.1
 _ZN13QAbstractAxis16titleTextChangedERK7QString@Qt_6 6.6.1
 _ZN13QAbstractAxis17labelsFontChangedERK5QFont@Qt_6 6.6.1
 _ZN13QAbstractAxis17setLabelsEditableEb@Qt_6 6.6.1
 _ZN13QAbstractAxis17setTruncateLabelsEb@Qt_6 6.6.1
 _ZN13QAbstractAxis17titleBrushChangedERK6QBrush@Qt_6 6.6.1
 _ZN13QAbstractAxis18gridLinePenChangedERK4QPen@Qt_6 6.6.1
 _ZN13QAbstractAxis18gridVisibleChangedEb@Qt_6 6.6.1
 _ZN13QAbstractAxis18labelsAngleChangedEi@Qt_6 6.6.1
 _ZN13QAbstractAxis18labelsBrushChangedERK6QBrush@Qt_6 6.6.1
 _ZN13QAbstractAxis18labelsColorChangedE6QColor@Qt_6 6.6.1
 _ZN13QAbstractAxis18lineVisibleChangedEb@Qt_6 6.6.1
 _ZN13QAbstractAxis18minorGridLineColorEv@Qt_6 6.6.1
 _ZN13QAbstractAxis18setGridLineVisibleEb@Qt_6 6.6.1
 _ZN13QAbstractAxis18shadesBrushChangedERK6QBrush@Qt_6 6.6.1
 _ZN13QAbstractAxis18shadesColorChangedE6QColor@Qt_6 6.6.1
 _ZN13QAbstractAxis19setMinorGridLinePenERK4QPen@Qt_6 6.6.1
 _ZN13QAbstractAxis19titleVisibleChangedEb@Qt_6 6.6.1
 _ZN13QAbstractAxis20gridLineColorChangedERK6QColor@Qt_6 6.6.1
 _ZN13QAbstractAxis20labelsVisibleChangedEb@Qt_6 6.6.1
 _ZN13QAbstractAxis20setShadesBorderColorE6QColor@Qt_6 6.6.1
 _ZN13QAbstractAxis20shadesVisibleChangedEb@Qt_6 6.6.1
 _ZN13QAbstractAxis21labelsEditableChangedEb@Qt_6 6.6.1
 _ZN13QAbstractAxis21setMinorGridLineColorERK6QColor@Qt_6 6.6.1
 _ZN13QAbstractAxis21truncateLabelsChangedEb@Qt_6 6.6.1
 _ZN13QAbstractAxis22labelsTruncatedChangedEb@Qt_6 6.6.1
 _ZN13QAbstractAxis23minorGridLinePenChangedERK4QPen@Qt_6 6.6.1
 _ZN13QAbstractAxis23minorGridVisibleChangedEb@Qt_6 6.6.1
 _ZN13QAbstractAxis23setMinorGridLineVisibleEb@Qt_6 6.6.1
 _ZN13QAbstractAxis24shadesBorderColorChangedE6QColor@Qt_6 6.6.1
 _ZN13QAbstractAxis25minorGridLineColorChangedERK6QColor@Qt_6 6.6.1
 _ZN13QAbstractAxis4hideEv@Qt_6 6.6.1
 _ZN13QAbstractAxis4showEv@Qt_6 6.6.1
 _ZN13QAbstractAxis6setMaxERK8QVariant@Qt_6 6.6.1
 _ZN13QAbstractAxis6setMinERK8QVariant@Qt_6 6.6.1
 _ZN13QAbstractAxis8setRangeERK8QVariantS2_@Qt_6 6.6.1
 _ZN13QAbstractAxisC1ER20QAbstractAxisPrivateP7QObject@Qt_6_PRIVATE_API 6.6.1
 _ZN13QAbstractAxisC2ER20QAbstractAxisPrivateP7QObject@Qt_6_PRIVATE_API 6.6.1
 _ZN13QAbstractAxisD0Ev@Qt_6 6.6.1
 _ZN13QAbstractAxisD1Ev@Qt_6 6.6.1
 _ZN13QAbstractAxisD2Ev@Qt_6 6.6.1
 _ZN13QCategoryAxis11qt_metacallEN11QMetaObject4CallEiPPv@Qt_6 6.6.1
 _ZN13QCategoryAxis11qt_metacastEPKc@Qt_6 6.6.1
 _ZN13QCategoryAxis12replaceLabelERK7QStringS2_@Qt_6 6.6.1
 _ZN13QCategoryAxis13setStartValueEd@Qt_6 6.6.1
 _ZN13QCategoryAxis16categoriesLabelsEv@Qt_6 6.6.1
 _ZN13QCategoryAxis16staticMetaObjectE@Qt_6 6.6.1
 _ZN13QCategoryAxis17categoriesChangedEv@Qt_6 6.6.1
 _ZN13QCategoryAxis17setLabelsPositionENS_18AxisLabelsPositionE@Qt_6 6.6.1
 _ZN13QCategoryAxis21labelsPositionChangedENS_18AxisLabelsPositionE@Qt_6 6.6.1
 _ZN13QCategoryAxis6appendERK7QStringd@Qt_6 6.6.1
 _ZN13QCategoryAxis6removeERK7QString@Qt_6 6.6.1
 _ZN13QCategoryAxisC1EP7QObject@Qt_6 6.6.1
 _ZN13QCategoryAxisC1ER20QCategoryAxisPrivateP7QObject@Qt_6_PRIVATE_API 6.6.1
 _ZN13QCategoryAxisC2EP7QObject@Qt_6 6.6.1
 _ZN13QCategoryAxisC2ER20QCategoryAxisPrivateP7QObject@Qt_6_PRIVATE_API 6.6.1
 _ZN13QCategoryAxisD0Ev@Qt_6 6.6.1
 _ZN13QCategoryAxisD1Ev@Qt_6 6.6.1
 _ZN13QCategoryAxisD2Ev@Qt_6 6.6.1
 _ZN13QChartPrivate10defaultPenEv@Qt_6_PRIVATE_API 6.6.1
 _ZN13QChartPrivate11defaultFontEv@Qt_6_PRIVATE_API 6.6.1
 _ZN13QChartPrivate12defaultBrushEv@Qt_6_PRIVATE_API 6.6.1
 _ZN13QChartPrivate4initEv@Qt_6_PRIVATE_API 6.6.1
 _ZN13QChartPrivate6scrollEdd@Qt_6_PRIVATE_API 6.6.1
 _ZN13QChartPrivate6zoomInERK6QRectF@Qt_6_PRIVATE_API 6.6.1
 _ZN13QChartPrivate6zoomInEd@Qt_6_PRIVATE_API 6.6.1
 _ZN13QChartPrivate7zoomOutEd@Qt_6_PRIVATE_API 6.6.1
 _ZN13QChartPrivate8isZoomedEv@Qt_6_PRIVATE_API 6.6.1
 _ZN13QChartPrivate9zoomResetEv@Qt_6_PRIVATE_API 6.6.1
 _ZN13QChartPrivateC1EP6QChartNS0_9ChartTypeE@Qt_6_PRIVATE_API 6.6.1
 _ZN13QChartPrivateC2EP6QChartNS0_9ChartTypeE@Qt_6_PRIVATE_API 6.6.1
 _ZN13QChartPrivateD1Ev@Qt_6_PRIVATE_API 6.6.1
 _ZN13QChartPrivateD2Ev@Qt_6_PRIVATE_API 6.6.1
 _ZN13QDateTimeAxis10maxChangedE9QDateTime@Qt_6 6.6.1
 _ZN13QDateTimeAxis10minChangedE9QDateTime@Qt_6 6.6.1
 _ZN13QDateTimeAxis11qt_metacallEN11QMetaObject4CallEiPPv@Qt_6 6.6.1
 _ZN13QDateTimeAxis11qt_metacastEPKc@Qt_6 6.6.1
 _ZN13QDateTimeAxis12rangeChangedE9QDateTimeS0_@Qt_6 6.6.1
 _ZN13QDateTimeAxis12setTickCountEi@Qt_6 6.6.1
 _ZN13QDateTimeAxis13formatChangedE7QString@Qt_6 6.6.1
 _ZN13QDateTimeAxis16staticMetaObjectE@Qt_6 6.6.1
 _ZN13QDateTimeAxis16tickCountChangedEi@Qt_6 6.6.1
 _ZN13QDateTimeAxis6setMaxE9QDateTime@Qt_6 6.6.1
 _ZN13QDateTimeAxis6setMinE9QDateTime@Qt_6 6.6.1
 _ZN13QDateTimeAxis8setRangeE9QDateTimeS0_@Qt_6 6.6.1
 _ZN13QDateTimeAxis9setFormatE7QString@Qt_6 6.6.1
 _ZN13QDateTimeAxisC1EP7QObject@Qt_6 6.6.1
 _ZN13QDateTimeAxisC1ER20QDateTimeAxisPrivateP7QObject@Qt_6_PRIVATE_API 6.6.1
 _ZN13QDateTimeAxisC2EP7QObject@Qt_6 6.6.1
 _ZN13QDateTimeAxisC2ER20QDateTimeAxisPrivateP7QObject@Qt_6_PRIVATE_API 6.6.1
 _ZN13QDateTimeAxisD0Ev@Qt_6 6.6.1
 _ZN13QDateTimeAxisD1Ev@Qt_6 6.6.1
 _ZN13QDateTimeAxisD2Ev@Qt_6 6.6.1
 _ZN13QLegendMarker10penChangedEv@Qt_6 6.6.1
 _ZN13QLegendMarker10setVisibleEb@Qt_6 6.6.1
 _ZN13QLegendMarker11fontChangedEv@Qt_6 6.6.1
 _ZN13QLegendMarker11qt_metacallEN11QMetaObject4CallEiPPv@Qt_6 6.6.1
 _ZN13QLegendMarker11qt_metacastEPKc@Qt_6 6.6.1
 _ZN13QLegendMarker12brushChangedEv@Qt_6 6.6.1
 _ZN13QLegendMarker12labelChangedEv@Qt_6 6.6.1
 _ZN13QLegendMarker12shapeChangedEv@Qt_6 6.6.1
 _ZN13QLegendMarker13setLabelBrushERK6QBrush@Qt_6 6.6.1
 _ZN13QLegendMarker14visibleChangedEv@Qt_6 6.6.1
 _ZN13QLegendMarker16staticMetaObjectE@Qt_6 6.6.1
 _ZN13QLegendMarker17labelBrushChangedEv@Qt_6 6.6.1
 _ZN13QLegendMarker6setPenERK4QPen@Qt_6 6.6.1
 _ZN13QLegendMarker7clickedEv@Qt_6 6.6.1
 _ZN13QLegendMarker7hoveredEb@Qt_6 6.6.1
 _ZN13QLegendMarker7setFontERK5QFont@Qt_6 6.6.1
 _ZN13QLegendMarker8setBrushERK6QBrush@Qt_6 6.6.1
 _ZN13QLegendMarker8setLabelERK7QString@Qt_6 6.6.1
 _ZN13QLegendMarker8setShapeEN7QLegend11MarkerShapeE@Qt_6 6.6.1
 _ZN13QLegendMarkerC1ER20QLegendMarkerPrivateP7QObject@Qt_6_PRIVATE_API 6.6.1
 _ZN13QLegendMarkerC2ER20QLegendMarkerPrivateP7QObject@Qt_6_PRIVATE_API 6.6.1
 _ZN13QLegendMarkerD0Ev@Qt_6 6.6.1
 _ZN13QLegendMarkerD1Ev@Qt_6 6.6.1
 _ZN13QLegendMarkerD2Ev@Qt_6 6.6.1
 _ZN13QLogValueAxis10maxChangedEd@Qt_6 6.6.1
 _ZN13QLogValueAxis10minChangedEd@Qt_6 6.6.1
 _ZN13QLogValueAxis11baseChangedEd@Qt_6 6.6.1
 _ZN13QLogValueAxis11qt_metacallEN11QMetaObject4CallEiPPv@Qt_6 6.6.1
 _ZN13QLogValueAxis11qt_metacastEPKc@Qt_6 6.6.1
 _ZN13QLogValueAxis12rangeChangedEdd@Qt_6 6.6.1
 _ZN13QLogValueAxis14setLabelFormatERK7QString@Qt_6 6.6.1
 _ZN13QLogValueAxis16staticMetaObjectE@Qt_6 6.6.1
 _ZN13QLogValueAxis16tickCountChangedEi@Qt_6 6.6.1
 _ZN13QLogValueAxis17setMinorTickCountEi@Qt_6 6.6.1
 _ZN13QLogValueAxis18labelFormatChangedERK7QString@Qt_6 6.6.1
 _ZN13QLogValueAxis21minorTickCountChangedEi@Qt_6 6.6.1
 _ZN13QLogValueAxis6setMaxEd@Qt_6 6.6.1
 _ZN13QLogValueAxis6setMinEd@Qt_6 6.6.1
 _ZN13QLogValueAxis7setBaseEd@Qt_6 6.6.1
 _ZN13QLogValueAxis8setRangeEdd@Qt_6 6.6.1
 _ZN13QLogValueAxisC1EP7QObject@Qt_6 6.6.1
 _ZN13QLogValueAxisC1ER20QLogValueAxisPrivateP7QObject@Qt_6_PRIVATE_API 6.6.1
 _ZN13QLogValueAxisC2EP7QObject@Qt_6 6.6.1
 _ZN13QLogValueAxisC2ER20QLogValueAxisPrivateP7QObject@Qt_6_PRIVATE_API 6.6.1
 _ZN13QLogValueAxisD0Ev@Qt_6 6.6.1
 _ZN13QLogValueAxisD1Ev@Qt_6 6.6.1
 _ZN13QLogValueAxisD2Ev@Qt_6 6.6.1
 _ZN13QMetaSequence12MetaSequenceI5QListI6QRectFEE5valueE@Qt_6 6.6.1
 _ZN13QMetaSequence12MetaSequenceI5QListI7QPointFEE5valueE@Qt_6 6.6.1
 _ZN13QMetaSequence12MetaSequenceI5QListIP15QCandlestickSetEE5valueE@Qt_6 6.6.1
 _ZN13QMetaSequence12MetaSequenceI5QListIP7QBarSetEE5valueE@Qt_6 6.6.1
 _ZN13QMetaSequence12MetaSequenceI5QListIP7QBoxSetEE5valueE@Qt_6 6.6.1
 _ZN13QMetaSequence12MetaSequenceI5QListIP9QPieSliceEE5valueE@Qt_6 6.6.1
 _ZN13QMetaSequence12MetaSequenceI5QListIdEE5valueE@Qt_6 6.6.1
 _ZN13QMetaSequence12MetaSequenceI5QListIiEE5valueE@Qt_6 6.6.1
 _ZN13QSplineSeries11qt_metacallEN11QMetaObject4CallEiPPv@Qt_6 6.6.1
 _ZN13QSplineSeries11qt_metacastEPKc@Qt_6 6.6.1
 _ZN13QSplineSeries16staticMetaObjectE@Qt_6 6.6.1
 _ZN13QSplineSeriesC1EP7QObject@Qt_6 6.6.1
 _ZN13QSplineSeriesC2EP7QObject@Qt_6 6.6.1
 _ZN13QSplineSeriesD0Ev@Qt_6 6.6.1
 _ZN13QSplineSeriesD1Ev@Qt_6 6.6.1
 _ZN13QSplineSeriesD2Ev@Qt_6 6.6.1
 _ZN13XYPolarDomain11qt_metacallEN11QMetaObject4CallEiPPv@Qt_6_PRIVATE_API 6.6.1
 _ZN13XYPolarDomain11qt_metacastEPKc@Qt_6_PRIVATE_API 6.6.1
 _ZN13XYPolarDomain16staticMetaObjectE@Qt_6_PRIVATE_API 6.6.1
 _ZN13XYPolarDomain4moveEdd@Qt_6_PRIVATE_API 6.6.1
 _ZN13XYPolarDomain6zoomInERK6QRectF@Qt_6_PRIVATE_API 6.6.1
 _ZN13XYPolarDomain7zoomOutERK6QRectF@Qt_6_PRIVATE_API 6.6.1
 _ZN13XYPolarDomain8setRangeEdddd@Qt_6_PRIVATE_API 6.6.1
 _ZN13XYPolarDomainC1EP7QObject@Qt_6_PRIVATE_API 6.6.1
 _ZN13XYPolarDomainC2EP7QObject@Qt_6_PRIVATE_API 6.6.1
 _ZN13XYPolarDomainD0Ev@Qt_6_PRIVATE_API 6.6.1
 _ZN13XYPolarDomainD1Ev@Qt_6_PRIVATE_API 6.6.1
 _ZN13XYPolarDomainD2Ev@Qt_6_PRIVATE_API 6.6.1
 _ZN14AbstractDomain10attachAxisEP13QAbstractAxis@Qt_6_PRIVATE_API 6.6.1
 _ZN14AbstractDomain10detachAxisEP13QAbstractAxis@Qt_6_PRIVATE_API 6.6.1
 _ZN14AbstractDomain10niceNumberEdb@Qt_6_PRIVATE_API 6.6.1
 _ZN14AbstractDomain11fixZoomRectERK6QRectF@Qt_6_PRIVATE_API 6.6.1
 _ZN14AbstractDomain11qt_metacallEN11QMetaObject4CallEiPPv@Qt_6_PRIVATE_API 6.6.1
 _ZN14AbstractDomain11qt_metacastEPKc@Qt_6_PRIVATE_API 6.6.1
 _ZN14AbstractDomain14storeZoomResetEv@Qt_6_PRIVATE_API 6.6.1
 _ZN14AbstractDomain16looseNiceNumbersERdS0_Ri@Qt_6_PRIVATE_API 6.6.1
 _ZN14AbstractDomain16staticMetaObjectE@Qt_6_PRIVATE_API 6.6.1
 _ZN14AbstractDomain17blockRangeSignalsEb@Qt_6_PRIVATE_API 6.6.1
 _ZN14AbstractDomain20rangeVerticalChangedEdd@Qt_6_PRIVATE_API 6.6.1
 _ZN14AbstractDomain21adjustLogDomainRangesERdS0_@Qt_6_PRIVATE_API 6.6.1
 _ZN14AbstractDomain21handleReverseXChangedEb@Qt_6_PRIVATE_API 6.6.1
 _ZN14AbstractDomain21handleReverseYChangedEb@Qt_6_PRIVATE_API 6.6.1
 _ZN14AbstractDomain22rangeHorizontalChangedEdd@Qt_6_PRIVATE_API 6.6.1
 _ZN14AbstractDomain30handleVerticalAxisRangeChangedEdd@Qt_6_PRIVATE_API 6.6.1
 _ZN14AbstractDomain32handleHorizontalAxisRangeChangedEdd@Qt_6_PRIVATE_API 6.6.1
 _ZN14AbstractDomain7setMaxXEd@Qt_6_PRIVATE_API 6.6.1
 _ZN14AbstractDomain7setMaxYEd@Qt_6_PRIVATE_API 6.6.1
 _ZN14AbstractDomain7setMinXEd@Qt_6_PRIVATE_API 6.6.1
 _ZN14AbstractDomain7setMinYEd@Qt_6_PRIVATE_API 6.6.1
 _ZN14AbstractDomain7setSizeERK6QSizeF@Qt_6_PRIVATE_API 6.6.1
 _ZN14AbstractDomain7updatedEv@Qt_6_PRIVATE_API 6.6.1
 _ZN14AbstractDomain9setRangeXEdd@Qt_6_PRIVATE_API 6.6.1
 _ZN14AbstractDomain9setRangeYEdd@Qt_6_PRIVATE_API 6.6.1
 _ZN14AbstractDomain9zoomResetEv@Qt_6_PRIVATE_API 6.6.1
 _ZN14AbstractDomainC1EP7QObject@Qt_6_PRIVATE_API 6.6.1
 _ZN14AbstractDomainC2EP7QObject@Qt_6_PRIVATE_API 6.6.1
 _ZN14AbstractDomainD0Ev@Qt_6_PRIVATE_API 6.6.1
 _ZN14AbstractDomainD1Ev@Qt_6_PRIVATE_API 6.6.1
 _ZN14AbstractDomainD2Ev@Qt_6_PRIVATE_API 6.6.1
 _ZN14ChartAnimation11qt_metacallEN11QMetaObject4CallEiPPv@Qt_6_PRIVATE_API 6.6.1
 _ZN14ChartAnimation11qt_metacastEPKc@Qt_6_PRIVATE_API 6.6.1
 _ZN14ChartAnimation16staticMetaObjectE@Qt_6_PRIVATE_API 6.6.1
 _ZN14ChartAnimation19startChartAnimationEv@Qt_6_PRIVATE_API 6.6.1
 _ZN14ChartAnimation19stopAndDestroyLaterEv@Qt_6_PRIVATE_API 6.6.1
 _ZN14ChartAnimationC1EP7QObject@Qt_6_PRIVATE_API 6.6.1
 _ZN14ChartAnimationC2EP7QObject@Qt_6_PRIVATE_API 6.6.1
 _ZN14ChartPresenter10setVisibleEb@Qt_6_PRIVATE_API 6.6.1
 _ZN14ChartPresenter11qt_metacallEN11QMetaObject4CallEiPPv@Qt_6_PRIVATE_API 6.6.1
 _ZN14ChartPresenter11qt_metacastEPKc@Qt_6_PRIVATE_API 6.6.1
 _ZN14ChartPresenter11setGeometryE6QRectF@Qt_6_PRIVATE_API 6.6.1
 _ZN14ChartPresenter12setTitleFontERK5QFont@Qt_6_PRIVATE_API 6.6.1
 _ZN14ChartPresenter12titleElementEv@Qt_6_PRIVATE_API 6.6.1
 _ZN14ChartPresenter13setTitleBrushERK6QBrush@Qt_6_PRIVATE_API 6.6.1
 _ZN14ChartPresenter13truncatedTextERK5QFontRK7QStringdddR6QRectF@Qt_6_PRIVATE_API 6.6.1
 _ZN14ChartPresenter14numberToStringEdci@Qt_6_PRIVATE_API 6.6.1
 _ZN14ChartPresenter14numberToStringEi@Qt_6_PRIVATE_API 6.6.1
 _ZN14ChartPresenter14startAnimationEP14ChartAnimation@Qt_6_PRIVATE_API 6.6.1
 _ZN14ChartPresenter14updateGLWidgetEv@Qt_6_PRIVATE_API 6.6.1
 _ZN14ChartPresenter14updateGeometryERK6QRectF@Qt_6_PRIVATE_API 6.6.1
 _ZN14ChartPresenter15createTitleItemEv@Qt_6_PRIVATE_API 6.6.1
 _ZN14ChartPresenter15handleAxisAddedEP13QAbstractAxis@Qt_6_PRIVATE_API 6.6.1
 _ZN14ChartPresenter15plotAreaChangedERK6QRectF@Qt_6_PRIVATE_API 6.6.1
 _ZN14ChartPresenter15plotAreaElementEv@Qt_6_PRIVATE_API 6.6.1
 _ZN14ChartPresenter16setBackgroundPenERK4QPen@Qt_6_PRIVATE_API 6.6.1
 _ZN14ChartPresenter16setFixedGeometryERK6QRectF@Qt_6_PRIVATE_API 6.6.1
 _ZN14ChartPresenter16staticMetaObjectE@Qt_6_PRIVATE_API 6.6.1
 _ZN14ChartPresenter16textBoundingRectERK5QFontRK7QStringd@Qt_6_PRIVATE_API 6.6.1
 _ZN14ChartPresenter17backgroundElementEv@Qt_6_PRIVATE_API 6.6.1
 _ZN14ChartPresenter17handleAxisRemovedEP13QAbstractAxis@Qt_6_PRIVATE_API 6.6.1
 _ZN14ChartPresenter17handleSeriesAddedEP15QAbstractSeries@Qt_6_PRIVATE_API 6.6.1
 _ZN14ChartPresenter18setBackgroundBrushERK6QBrush@Qt_6_PRIVATE_API 6.6.1
 _ZN14ChartPresenter18setLocalizeNumbersEb@Qt_6_PRIVATE_API 6.6.1
 _ZN14ChartPresenter19handleSeriesRemovedEP15QAbstractSeries@Qt_6_PRIVATE_API 6.6.1
 _ZN14ChartPresenter19setAnimationOptionsE6QFlagsIN6QChart15AnimationOptionEE@Qt_6_PRIVATE_API 6.6.1
 _ZN14ChartPresenter20createBackgroundItemEv@Qt_6_PRIVATE_API 6.6.1
 _ZN14ChartPresenter20setAnimationDurationEi@Qt_6_PRIVATE_API 6.6.1
 _ZN14ChartPresenter20setBackgroundVisibleEb@Qt_6_PRIVATE_API 6.6.1
 _ZN14ChartPresenter22setBackgroundRoundnessEd@Qt_6_PRIVATE_API 6.6.1
 _ZN14ChartPresenter23setAnimationEasingCurveERK12QEasingCurve@Qt_6_PRIVATE_API 6.6.1
 _ZN14ChartPresenter24setPlotAreaBackgroundPenERK4QPen@Qt_6_PRIVATE_API 6.6.1
 _ZN14ChartPresenter26setPlotAreaBackgroundBrushERK6QBrush@Qt_6_PRIVATE_API 6.6.1
 _ZN14ChartPresenter28createPlotAreaBackgroundItemEv@Qt_6_PRIVATE_API 6.6.1
 _ZN14ChartPresenter28setPlotAreaBackgroundVisibleEb@Qt_6_PRIVATE_API 6.6.1
 _ZN14ChartPresenter30setBackgroundDropShadowEnabledEb@Qt_6_PRIVATE_API 6.6.1
 _ZN14ChartPresenter6layoutEv@Qt_6_PRIVATE_API 6.6.1
 _ZN14ChartPresenter6legendEv@Qt_6_PRIVATE_API 6.6.1
 _ZN14ChartPresenter8setStateENS_5StateE7QPointF@Qt_6_PRIVATE_API 6.6.1
 _ZN14ChartPresenter8setTitleERK7QString@Qt_6_PRIVATE_API 6.6.1
 _ZN14ChartPresenter9setLocaleERK7QLocale@Qt_6_PRIVATE_API 6.6.1
 _ZN14ChartPresenterC1EP6QChartNS0_9ChartTypeE@Qt_6_PRIVATE_API 6.6.1
 _ZN14ChartPresenterC2EP6QChartNS0_9ChartTypeE@Qt_6_PRIVATE_API 6.6.1
 _ZN14ChartPresenterD0Ev@Qt_6_PRIVATE_API 6.6.1
 _ZN14ChartPresenterD1Ev@Qt_6_PRIVATE_API 6.6.1
 _ZN14ChartPresenterD2Ev@Qt_6_PRIVATE_API 6.6.1
 _ZN14HorizontalAxis14updateGeometryEv@Qt_6_PRIVATE_API 6.6.1
 _ZN14HorizontalAxis23updateMinorTickGeometryEv@Qt_6_PRIVATE_API 6.6.1
 _ZN14HorizontalAxisC1EP13QAbstractAxisP13QGraphicsItemb@Qt_6_PRIVATE_API 6.6.1
 _ZN14HorizontalAxisC2EP13QAbstractAxisP13QGraphicsItemb@Qt_6_PRIVATE_API 6.6.1
 _ZN14HorizontalAxisD0Ev@Qt_6_PRIVATE_API 6.6.1
 _ZN14HorizontalAxisD1Ev@Qt_6_PRIVATE_API 6.6.1
 _ZN14HorizontalAxisD2Ev@Qt_6_PRIVATE_API 6.6.1
 _ZN14LegendScroller11qt_metacallEN11QMetaObject4CallEiPPv@Qt_6_PRIVATE_API 6.6.1
 _ZN14LegendScroller11qt_metacastEPKc@Qt_6_PRIVATE_API 6.6.1
 _ZN14LegendScroller14handleDetachedEb@Qt_6_PRIVATE_API 6.6.1
 _ZN14LegendScroller14hoverMoveEventEP24QGraphicsSceneHoverEvent@Qt_6_PRIVATE_API 6.6.1
 _ZN14LegendScroller14mouseMoveEventEP24QGraphicsSceneMouseEvent@Qt_6_PRIVATE_API 6.6.1
 _ZN14LegendScroller15hoverEnterEventEP24QGraphicsSceneHoverEvent@Qt_6_PRIVATE_API 6.6.1
 _ZN14LegendScroller15hoverLeaveEventEP24QGraphicsSceneHoverEvent@Qt_6_PRIVATE_API 6.6.1
 _ZN14LegendScroller15mousePressEventEP24QGraphicsSceneMouseEvent@Qt_6_PRIVATE_API 6.6.1
 _ZN14LegendScroller16staticMetaObjectE@Qt_6_PRIVATE_API 6.6.1
 _ZN14LegendScroller17mouseReleaseEventEP24QGraphicsSceneMouseEvent@Qt_6_PRIVATE_API 6.6.1
 _ZN14LegendScroller21mouseDoubleClickEventEP24QGraphicsSceneMouseEvent@Qt_6_PRIVATE_API 6.6.1
 _ZN14LegendScroller22updateForResizerChangeEv@Qt_6_PRIVATE_API 6.6.1
 _ZN14LegendScroller24handleInteractiveChangedEb@Qt_6_PRIVATE_API 6.6.1
 _ZN14LegendScroller5paintEP8QPainterPK24QStyleOptionGraphicsItemP7QWidget@Qt_6_PRIVATE_API 6.6.1
 _ZN14LegendScroller9setOffsetERK7QPointF@Qt_6_PRIVATE_API 6.6.1
 _ZN14LegendScrollerC1EP6QChart@Qt_6_PRIVATE_API 6.6.1
 _ZN14LegendScrollerC2EP6QChart@Qt_6_PRIVATE_API 6.6.1
 _ZN14LogXLogYDomain10attachAxisEP13QAbstractAxis@Qt_6_PRIVATE_API 6.6.1
 _ZN14LogXLogYDomain10detachAxisEP13QAbstractAxis@Qt_6_PRIVATE_API 6.6.1
 _ZN14LogXLogYDomain11qt_metacallEN11QMetaObject4CallEiPPv@Qt_6_PRIVATE_API 6.6.1
 _ZN14LogXLogYDomain11qt_metacastEPKc@Qt_6_PRIVATE_API 6.6.1
 _ZN14LogXLogYDomain16staticMetaObjectE@Qt_6_PRIVATE_API 6.6.1
 _ZN14LogXLogYDomain29handleVerticalAxisBaseChangedEd@Qt_6_PRIVATE_API 6.6.1
 _ZN14LogXLogYDomain31handleHorizontalAxisBaseChangedEd@Qt_6_PRIVATE_API 6.6.1
 _ZN14LogXLogYDomain4moveEdd@Qt_6_PRIVATE_API 6.6.1
 _ZN14LogXLogYDomain6zoomInERK6QRectF@Qt_6_PRIVATE_API 6.6.1
 _ZN14LogXLogYDomain7zoomOutERK6QRectF@Qt_6_PRIVATE_API 6.6.1
 _ZN14LogXLogYDomain8setRangeEdddd@Qt_6_PRIVATE_API 6.6.1
 _ZN14LogXLogYDomainC1EP7QObject@Qt_6_PRIVATE_API 6.6.1
 _ZN14LogXLogYDomainC2EP7QObject@Qt_6_PRIVATE_API 6.6.1
 _ZN14LogXLogYDomainD0Ev@Qt_6_PRIVATE_API 6.6.1
 _ZN14LogXLogYDomainD1Ev@Qt_6_PRIVATE_API 6.6.1
 _ZN14LogXLogYDomainD2Ev@Qt_6_PRIVATE_API 6.6.1
 _ZN14PentagonMarker7polygonEdddd@Qt_6_PRIVATE_API 6.6.1
 _ZN14PentagonMarkerC1EddddP16ScatterChartItem@Qt_6_PRIVATE_API 6.6.1
 _ZN14PentagonMarkerC2EddddP16ScatterChartItem@Qt_6_PRIVATE_API 6.6.1
 _ZN14PolarChartAxis11deleteItemsEi@Qt_6_PRIVATE_API 6.6.1
 _ZN14PolarChartAxis11qt_metacallEN11QMetaObject4CallEiPPv@Qt_6_PRIVATE_API 6.6.1
 _ZN14PolarChartAxis11qt_metacastEPKc@Qt_6_PRIVATE_API 6.6.1
 _ZN14PolarChartAxis11setGeometryERK6QRectFS2_@Qt_6_PRIVATE_API 6.6.1
 _ZN14PolarChartAxis12updateLayoutERK5QListIdE@Qt_6_PRIVATE_API 6.6.1
 _ZN14PolarChartAxis16staticMetaObjectE@Qt_6_PRIVATE_API 6.6.1
 _ZN14PolarChartAxis22handleShadesPenChangedERK4QPen@Qt_6_PRIVATE_API 6.6.1
 _ZN14PolarChartAxis24handleShadesBrushChangedERK6QBrush@Qt_6_PRIVATE_API 6.6.1
 _ZN14PolarChartAxisC1EP13QAbstractAxisP13QGraphicsItemb@Qt_6_PRIVATE_API 6.6.1
 _ZN14PolarChartAxisC2EP13QAbstractAxisP13QGraphicsItemb@Qt_6_PRIVATE_API 6.6.1
 _ZN14PolarChartAxisD0Ev@Qt_6_PRIVATE_API 6.6.1
 _ZN14PolarChartAxisD1Ev@Qt_6_PRIVATE_API 6.6.1
 _ZN14PolarChartAxisD2Ev@Qt_6_PRIVATE_API 6.6.1
 _ZN14QBarSetPrivate10valueAddedEii@Qt_6_PRIVATE_API 6.6.1
 _ZN14QBarSetPrivate11qt_metacallEN11QMetaObject4CallEiPPv@Qt_6_PRIVATE_API 6.6.1
 _ZN14QBarSetPrivate11qt_metacastEPKc@Qt_6_PRIVATE_API 6.6.1
 _ZN14QBarSetPrivate11updatedBarsEv@Qt_6_PRIVATE_API 6.6.1
 _ZN14QBarSetPrivate12valueChangedEi@Qt_6_PRIVATE_API 6.6.1
 _ZN14QBarSetPrivate12valueRemovedEii@Qt_6_PRIVATE_API 6.6.1
 _ZN14QBarSetPrivate14setBarSelectedEibRb@Qt_6_PRIVATE_API 6.6.1
 _ZN14QBarSetPrivate16staticMetaObjectE@Qt_6_PRIVATE_API 6.6.1
 _ZN14QBarSetPrivate3posEi@Qt_6_PRIVATE_API 6.6.1
 _ZN14QBarSetPrivate5valueEi@Qt_6_PRIVATE_API 6.6.1
 _ZN14QBarSetPrivate6appendE7QPointF@Qt_6_PRIVATE_API 6.6.1
 _ZN14QBarSetPrivate6appendERK5QListI7QPointFE@Qt_6_PRIVATE_API 6.6.1
 _ZN14QBarSetPrivate6appendERK5QListIdE@Qt_6_PRIVATE_API 6.6.1
 _ZN14QBarSetPrivate6insertEi7QPointF@Qt_6_PRIVATE_API 6.6.1
 _ZN14QBarSetPrivate6insertEid@Qt_6_PRIVATE_API 6.6.1
 _ZN14QBarSetPrivate6removeEii@Qt_6_PRIVATE_API 6.6.1
 _ZN14QBarSetPrivate7replaceEid@Qt_6_PRIVATE_API 6.6.1
 _ZN14QBarSetPrivateC1E7QStringP7QBarSet@Qt_6_PRIVATE_API 6.6.1
 _ZN14QBarSetPrivateC2E7QStringP7QBarSet@Qt_6_PRIVATE_API 6.6.1
 _ZN14QBarSetPrivateD0Ev@Qt_6_PRIVATE_API 6.6.1
 _ZN14QBarSetPrivateD1Ev@Qt_6_PRIVATE_API 6.6.1
 _ZN14QBarSetPrivateD2Ev@Qt_6_PRIVATE_API 6.6.1
 _ZN14QBoxPlotSeries10penChangedEv@Qt_6 6.6.1
 _ZN14QBoxPlotSeries11qt_metacallEN11QMetaObject4CallEiPPv@Qt_6 6.6.1
 _ZN14QBoxPlotSeries11qt_metacastEPKc@Qt_6 6.6.1
 _ZN14QBoxPlotSeries11setBoxWidthEd@Qt_6 6.6.1
 _ZN14QBoxPlotSeries12boxsetsAddedERK5QListIP7QBoxSetE@Qt_6 6.6.1
 _ZN14QBoxPlotSeries12brushChangedEv@Qt_6 6.6.1
 _ZN14QBoxPlotSeries12countChangedEv@Qt_6 6.6.1
 _ZN14QBoxPlotSeries13doubleClickedEP7QBoxSet@Qt_6 6.6.1
 _ZN14QBoxPlotSeries14boxsetsRemovedERK5QListIP7QBoxSetE@Qt_6 6.6.1
 _ZN14QBoxPlotSeries15boxWidthChangedEv@Qt_6 6.6.1
 _ZN14QBoxPlotSeries16staticMetaObjectE@Qt_6 6.6.1
 _ZN14QBoxPlotSeries17boxOutlineVisibleEv@Qt_6 6.6.1
 _ZN14QBoxPlotSeries20setBoxOutlineVisibleEb@Qt_6 6.6.1
 _ZN14QBoxPlotSeries27boxOutlineVisibilityChangedEv@Qt_6 6.6.1
 _ZN14QBoxPlotSeries4takeEP7QBoxSet@Qt_6 6.6.1
 _ZN14QBoxPlotSeries5clearEv@Qt_6 6.6.1
 _ZN14QBoxPlotSeries6appendEP7QBoxSet@Qt_6 6.6.1
 _ZN14QBoxPlotSeries6appendERK5QListIP7QBoxSetE@Qt_6 6.6.1
 _ZN14QBoxPlotSeries6insertEiP7QBoxSet@Qt_6 6.6.1
 _ZN14QBoxPlotSeries6removeEP7QBoxSet@Qt_6 6.6.1
 _ZN14QBoxPlotSeries6setPenERK4QPen@Qt_6 6.6.1
 _ZN14QBoxPlotSeries7clickedEP7QBoxSet@Qt_6 6.6.1
 _ZN14QBoxPlotSeries7hoveredEbP7QBoxSet@Qt_6 6.6.1
 _ZN14QBoxPlotSeries7pressedEP7QBoxSet@Qt_6 6.6.1
 _ZN14QBoxPlotSeries8boxWidthEv@Qt_6 6.6.1
 _ZN14QBoxPlotSeries8releasedEP7QBoxSet@Qt_6 6.6.1
 _ZN14QBoxPlotSeries8setBrushERK6QBrush@Qt_6 6.6.1
 _ZN14QBoxPlotSeriesC1EP7QObject@Qt_6 6.6.1
 _ZN14QBoxPlotSeriesC2EP7QObject@Qt_6 6.6.1
 _ZN14QBoxPlotSeriesD0Ev@Qt_6 6.6.1
 _ZN14QBoxPlotSeriesD1Ev@Qt_6 6.6.1
 _ZN14QBoxPlotSeriesD2Ev@Qt_6 6.6.1
 _ZN14QBoxSetPrivate10updatedBoxEv@Qt_6_PRIVATE_API 6.6.1
 _ZN14QBoxSetPrivate11qt_metacallEN11QMetaObject4CallEiPPv@Qt_6_PRIVATE_API 6.6.1
 _ZN14QBoxSetPrivate11qt_metacastEPKc@Qt_6_PRIVATE_API 6.6.1
 _ZN14QBoxSetPrivate13updatedLayoutEv@Qt_6_PRIVATE_API 6.6.1
 _ZN14QBoxSetPrivate15restructuredBoxEv@Qt_6_PRIVATE_API 6.6.1
 _ZN14QBoxSetPrivate16staticMetaObjectE@Qt_6_PRIVATE_API 6.6.1
 _ZN14QBoxSetPrivate5clearEv@Qt_6_PRIVATE_API 6.6.1
 _ZN14QBoxSetPrivate5valueEi@Qt_6_PRIVATE_API 6.6.1
 _ZN14QBoxSetPrivate6appendERK5QListIdE@Qt_6_PRIVATE_API 6.6.1
 _ZN14QBoxSetPrivate6appendEd@Qt_6_PRIVATE_API 6.6.1
 _ZN14QBoxSetPrivate8setValueEid@Qt_6_PRIVATE_API 6.6.1
 _ZN14QBoxSetPrivateC1E7QStringP7QBoxSet@Qt_6_PRIVATE_API 6.6.1
 _ZN14QBoxSetPrivateC2E7QStringP7QBoxSet@Qt_6_PRIVATE_API 6.6.1
 _ZN14QBoxSetPrivateD0Ev@Qt_6_PRIVATE_API 6.6.1
 _ZN14QBoxSetPrivateD1Ev@Qt_6_PRIVATE_API 6.6.1
 _ZN14QBoxSetPrivateD2Ev@Qt_6_PRIVATE_API 6.6.1
 _ZN14QLegendPrivate10addMarkersERK5QListIP13QLegendMarkerE@Qt_6_PRIVATE_API 6.6.1
 _ZN14QLegendPrivate11qt_metacallEN11QMetaObject4CallEiPPv@Qt_6_PRIVATE_API 6.6.1
 _ZN14QLegendPrivate11qt_metacastEPKc@Qt_6_PRIVATE_API 6.6.1
 _ZN14QLegendPrivate13relatedObjectEPK13QLegendMarker@Qt_6_PRIVATE_API 6.6.1
 _ZN14QLegendPrivate13removeMarkersERK5QListIP13QLegendMarkerE@Qt_6_PRIVATE_API 6.6.1
 _ZN14QLegendPrivate14decorateMarkerEP13QLegendMarker@Qt_6_PRIVATE_API 6.6.1
 _ZN14QLegendPrivate14updateToolTipsEv@Qt_6_PRIVATE_API 6.6.1
 _ZN14QLegendPrivate15decorateMarkersERK5QListIP13QLegendMarkerE@Qt_6_PRIVATE_API 6.6.1
 _ZN14QLegendPrivate16staticMetaObjectE@Qt_6_PRIVATE_API 6.6.1
 _ZN14QLegendPrivate17handleSeriesAddedEP15QAbstractSeries@Qt_6_PRIVATE_API 6.6.1
 _ZN14QLegendPrivate18handleCountChangedEv@Qt_6_PRIVATE_API 6.6.1
 _ZN14QLegendPrivate18insertMarkerHelperEP13QLegendMarker@Qt_6_PRIVATE_API 6.6.1
 _ZN14QLegendPrivate18removeMarkerHelperEP13QLegendMarker@Qt_6_PRIVATE_API 6.6.1
 _ZN14QLegendPrivate19handleSeriesRemovedEP15QAbstractSeries@Qt_6_PRIVATE_API 6.6.1
 _ZN14QLegendPrivate26handleSeriesVisibleChangedEv@Qt_6_PRIVATE_API 6.6.1
 _ZN14QLegendPrivate7markersEP15QAbstractSeries@Qt_6_PRIVATE_API 6.6.1
 _ZN14QLegendPrivate9roundnessEd@Qt_6_PRIVATE_API 6.6.1
 _ZN14QLegendPrivate9setOffsetERK7QPointF@Qt_6_PRIVATE_API 6.6.1
 _ZN14QLegendPrivateC1EP14ChartPresenterP6QChartP7QLegend@Qt_6_PRIVATE_API 6.6.1
 _ZN14QLegendPrivateC2EP14ChartPresenterP6QChartP7QLegend@Qt_6_PRIVATE_API 6.6.1
 _ZN14QLegendPrivateD0Ev@Qt_6_PRIVATE_API 6.6.1
 _ZN14QLegendPrivateD1Ev@Qt_6_PRIVATE_API 6.6.1
 _ZN14QLegendPrivateD2Ev@Qt_6_PRIVATE_API 6.6.1
 _ZN14QScatterSeries11qt_metacallEN11QMetaObject4CallEiPPv@Qt_6 6.6.1
 _ZN14QScatterSeries11qt_metacastEPKc@Qt_6 6.6.1
 _ZN14QScatterSeries12colorChangedE6QColor@Qt_6 6.6.1
 _ZN14QScatterSeries13setMarkerSizeEd@Qt_6 6.6.1
 _ZN14QScatterSeries14setBorderColorERK6QColor@Qt_6 6.6.1
 _ZN14QScatterSeries14setMarkerShapeENS_11MarkerShapeE@Qt_6 6.6.1
 _ZN14QScatterSeries16staticMetaObjectE@Qt_6 6.6.1
 _ZN14QScatterSeries17markerSizeChangedEd@Qt_6 6.6.1
 _ZN14QScatterSeries18borderColorChangedE6QColor@Qt_6 6.6.1
 _ZN14QScatterSeries18markerShapeChangedENS_11MarkerShapeE@Qt_6 6.6.1
 _ZN14QScatterSeries6setPenERK4QPen@Qt_6 6.6.1
 _ZN14QScatterSeries8setBrushERK6QBrush@Qt_6 6.6.1
 _ZN14QScatterSeries8setColorERK6QColor@Qt_6 6.6.1
 _ZN14QScatterSeriesC1EP7QObject@Qt_6 6.6.1
 _ZN14QScatterSeriesC2EP7QObject@Qt_6 6.6.1
 _ZN14QScatterSeriesD0Ev@Qt_6 6.6.1
 _ZN14QScatterSeriesD1Ev@Qt_6 6.6.1
 _ZN14QScatterSeriesD2Ev@Qt_6 6.6.1
 _ZN14QXYModelMapper11qt_metacallEN11QMetaObject4CallEiPPv@Qt_6 6.6.1
 _ZN14QXYModelMapper11qt_metacastEPKc@Qt_6 6.6.1
 _ZN14QXYModelMapper11setXSectionEi@Qt_6 6.6.1
 _ZN14QXYModelMapper11setYSectionEi@Qt_6 6.6.1
 _ZN14QXYModelMapper14setOrientationEN2Qt11OrientationE@Qt_6 6.6.1
 _ZN14QXYModelMapper16staticMetaObjectE@Qt_6 6.6.1
 _ZN14QXYModelMapper8setCountEi@Qt_6 6.6.1
 _ZN14QXYModelMapper8setFirstEi@Qt_6 6.6.1
 _ZN14QXYModelMapper8setModelEP18QAbstractItemModel@Qt_6 6.6.1
 _ZN14QXYModelMapper9setSeriesEP9QXYSeries@Qt_6 6.6.1
 _ZN14QXYModelMapperC1EP7QObject@Qt_6 6.6.1
 _ZN14QXYModelMapperC2EP7QObject@Qt_6 6.6.1
 _ZN14TriangleMarker7polygonEdddd@Qt_6_PRIVATE_API 6.6.1
 _ZN14TriangleMarkerC1EddddP16ScatterChartItem@Qt_6_PRIVATE_API 6.6.1
 _ZN14TriangleMarkerC2EddddP16ScatterChartItem@Qt_6_PRIVATE_API 6.6.1
 _ZN14ValueAxisLabel11qt_metacallEN11QMetaObject4CallEiPPv@Qt_6_PRIVATE_API 6.6.1
 _ZN14ValueAxisLabel11qt_metacastEPKc@Qt_6_PRIVATE_API 6.6.1
 _ZN14ValueAxisLabel12valueChangedEdd@Qt_6_PRIVATE_API 6.6.1
 _ZN14ValueAxisLabel13finishEditingEv@Qt_6_PRIVATE_API 6.6.1
 _ZN14ValueAxisLabel13keyPressEventEP9QKeyEvent@Qt_6_PRIVATE_API 6.6.1
 _ZN14ValueAxisLabel16staticMetaObjectE@Qt_6_PRIVATE_API 6.6.1
 _ZN14ValueAxisLabel19setInitialEditValueEv@Qt_6_PRIVATE_API 6.6.1
 _ZN14ValueAxisLabel20resetBeforeEditValueEv@Qt_6_PRIVATE_API 6.6.1
 _ZN14ValueAxisLabel8setValueERKd@Qt_6_PRIVATE_API 6.6.1
 _ZN14ValueAxisLabelC1EP13QGraphicsItem@Qt_6_PRIVATE_API 6.6.1
 _ZN14ValueAxisLabelC2EP13QGraphicsItem@Qt_6_PRIVATE_API 6.6.1
 _ZN15ChartBackground11setDiameterEd@Qt_6_PRIVATE_API 6.6.1
 _ZN15ChartBackground20setDropShadowEnabledEb@Qt_6_PRIVATE_API 6.6.1
 _ZN15ChartBackground5paintEP8QPainterPK24QStyleOptionGraphicsItemP7QWidget@Qt_6_PRIVATE_API 6.6.1
 _ZN15ChartBackgroundC1EP13QGraphicsItem@Qt_6_PRIVATE_API 6.6.1
 _ZN15ChartBackgroundC2EP13QGraphicsItem@Qt_6_PRIVATE_API 6.6.1
 _ZN15ChartBackgroundD0Ev@Qt_6_PRIVATE_API 6.6.1
 _ZN15ChartBackgroundD1Ev@Qt_6_PRIVATE_API 6.6.1
 _ZN15ChartBackgroundD2Ev@Qt_6_PRIVATE_API 6.6.1
 _ZN15ChartColorAxisX11qt_metacallEN11QMetaObject4CallEiPPv@Qt_6_PRIVATE_API 6.6.1
 _ZN15ChartColorAxisX11qt_metacastEPKc@Qt_6_PRIVATE_API 6.6.1
 _ZN15ChartColorAxisX14updateGeometryEv@Qt_6_PRIVATE_API 6.6.1
 _ZN15ChartColorAxisX16staticMetaObjectE@Qt_6_PRIVATE_API 6.6.1
 _ZN15ChartColorAxisXC1EP10QColorAxisP13QGraphicsItem@Qt_6_PRIVATE_API 6.6.1
 _ZN15ChartColorAxisXC2EP10QColorAxisP13QGraphicsItem@Qt_6_PRIVATE_API 6.6.1
 _ZN15ChartColorAxisXD0Ev@Qt_6_PRIVATE_API 6.6.1
 _ZN15ChartColorAxisXD1Ev@Qt_6_PRIVATE_API 6.6.1
 _ZN15ChartColorAxisXD2Ev@Qt_6_PRIVATE_API 6.6.1
 _ZN15ChartColorAxisY11qt_metacallEN11QMetaObject4CallEiPPv@Qt_6_PRIVATE_API 6.6.1
 _ZN15ChartColorAxisY11qt_metacastEPKc@Qt_6_PRIVATE_API 6.6.1
 _ZN15ChartColorAxisY14updateGeometryEv@Qt_6_PRIVATE_API 6.6.1
 _ZN15ChartColorAxisY16staticMetaObjectE@Qt_6_PRIVATE_API 6.6.1
 _ZN15ChartColorAxisYC1EP10QColorAxisP13QGraphicsItem@Qt_6_PRIVATE_API 6.6.1
 _ZN15ChartColorAxisYC2EP10QColorAxisP13QGraphicsItem@Qt_6_PRIVATE_API 6.6.1
 _ZN15ChartColorAxisYD0Ev@Qt_6_PRIVATE_API 6.6.1
 _ZN15ChartColorAxisYD1Ev@Qt_6_PRIVATE_API 6.6.1
 _ZN15ChartColorAxisYD2Ev@Qt_6_PRIVATE_API 6.6.1
 _ZN15ChartValueAxisX11qt_metacallEN11QMetaObject4CallEiPPv@Qt_6_PRIVATE_API 6.6.1
 _ZN15ChartValueAxisX11qt_metacastEPKc@Qt_6_PRIVATE_API 6.6.1
 _ZN15ChartValueAxisX14updateGeometryEv@Qt_6_PRIVATE_API 6.6.1
 _ZN15ChartValueAxisX16staticMetaObjectE@Qt_6_PRIVATE_API 6.6.1
 _ZN15ChartValueAxisX21handleTickTypeChangedEN10QValueAxis8TickTypeE@Qt_6_PRIVATE_API 6.6.1
 _ZN15ChartValueAxisX22handleTickCountChangedEi@Qt_6_PRIVATE_API 6.6.1
 _ZN15ChartValueAxisX23handleTickAnchorChangedEd@Qt_6_PRIVATE_API 6.6.1
 _ZN15ChartValueAxisX24handleLabelFormatChangedERK7QString@Qt_6_PRIVATE_API 6.6.1
 _ZN15ChartValueAxisX25handleTickIntervalChangedEd@Qt_6_PRIVATE_API 6.6.1
 _ZN15ChartValueAxisX27handleMinorTickCountChangedEi@Qt_6_PRIVATE_API 6.6.1
 _ZN15ChartValueAxisXC1EP10QValueAxisP13QGraphicsItem@Qt_6_PRIVATE_API 6.6.1
 _ZN15ChartValueAxisXC2EP10QValueAxisP13QGraphicsItem@Qt_6_PRIVATE_API 6.6.1
 _ZN15ChartValueAxisXD0Ev@Qt_6_PRIVATE_API 6.6.1
 _ZN15ChartValueAxisXD1Ev@Qt_6_PRIVATE_API 6.6.1
 _ZN15ChartValueAxisXD2Ev@Qt_6_PRIVATE_API 6.6.1
 _ZN15ChartValueAxisY11qt_metacallEN11QMetaObject4CallEiPPv@Qt_6_PRIVATE_API 6.6.1
 _ZN15ChartValueAxisY11qt_metacastEPKc@Qt_6_PRIVATE_API 6.6.1
 _ZN15ChartValueAxisY14updateGeometryEv@Qt_6_PRIVATE_API 6.6.1
 _ZN15ChartValueAxisY16staticMetaObjectE@Qt_6_PRIVATE_API 6.6.1
 _ZN15ChartValueAxisY21handleTickTypeChangedEN10QValueAxis8TickTypeE@Qt_6_PRIVATE_API 6.6.1
 _ZN15ChartValueAxisY22handleTickCountChangedEi@Qt_6_PRIVATE_API 6.6.1
 _ZN15ChartValueAxisY23handleTickAnchorChangedEd@Qt_6_PRIVATE_API 6.6.1
 _ZN15ChartValueAxisY24handleLabelFormatChangedERK7QString@Qt_6_PRIVATE_API 6.6.1
 _ZN15ChartValueAxisY25handleTickIntervalChangedEd@Qt_6_PRIVATE_API 6.6.1
 _ZN15ChartValueAxisY27handleMinorTickCountChangedEi@Qt_6_PRIVATE_API 6.6.1
 _ZN15ChartValueAxisYC1EP10QValueAxisP13QGraphicsItem@Qt_6_PRIVATE_API 6.6.1
 _ZN15ChartValueAxisYC2EP10QValueAxisP13QGraphicsItem@Qt_6_PRIVATE_API 6.6.1
 _ZN15ChartValueAxisYD0Ev@Qt_6_PRIVATE_API 6.6.1
 _ZN15ChartValueAxisYD1Ev@Qt_6_PRIVATE_API 6.6.1
 _ZN15ChartValueAxisYD2Ev@Qt_6_PRIVATE_API 6.6.1
 _ZN15QAbstractSeries10attachAxisEP13QAbstractAxis@Qt_6 6.6.1
 _ZN15QAbstractSeries10detachAxisEP13QAbstractAxis@Qt_6 6.6.1
 _ZN15QAbstractSeries10setOpacityEd@Qt_6 6.6.1
 _ZN15QAbstractSeries10setVisibleEb@Qt_6 6.6.1
 _ZN15QAbstractSeries11nameChangedEv@Qt_6 6.6.1
 _ZN15QAbstractSeries11qt_metacallEN11QMetaObject4CallEiPPv@Qt_6 6.6.1
 _ZN15QAbstractSeries11qt_metacastEPKc@Qt_6 6.6.1
 _ZN15QAbstractSeries12attachedAxesEv@Qt_6 6.6.1
 _ZN15QAbstractSeries12setUseOpenGLEb@Qt_6 6.6.1
 _ZN15QAbstractSeries14opacityChangedEv@Qt_6 6.6.1
 _ZN15QAbstractSeries14visibleChangedEv@Qt_6 6.6.1
 _ZN15QAbstractSeries16staticMetaObjectE@Qt_6 6.6.1
 _ZN15QAbstractSeries16useOpenGLChangedEv@Qt_6 6.6.1
 _ZN15QAbstractSeries4hideEv@Qt_6 6.6.1
 _ZN15QAbstractSeries4showEv@Qt_6 6.6.1
 _ZN15QAbstractSeries7setNameERK7QString@Qt_6 6.6.1
 _ZN15QAbstractSeriesC1ER22QAbstractSeriesPrivateP7QObject@Qt_6_PRIVATE_API 6.6.1
 _ZN15QAbstractSeriesC2ER22QAbstractSeriesPrivateP7QObject@Qt_6_PRIVATE_API 6.6.1
 _ZN15QAbstractSeriesD0Ev@Qt_6 6.6.1
 _ZN15QAbstractSeriesD1Ev@Qt_6 6.6.1
 _ZN15QAbstractSeriesD2Ev@Qt_6 6.6.1
 _ZN15QBarModelMapper11qt_metacallEN11QMetaObject4CallEiPPv@Qt_6 6.6.1
 _ZN15QBarModelMapper11qt_metacastEPKc@Qt_6 6.6.1
 _ZN15QBarModelMapper14setOrientationEN2Qt11OrientationE@Qt_6 6.6.1
 _ZN15QBarModelMapper16staticMetaObjectE@Qt_6 6.6.1
 _ZN15QBarModelMapper20setLastBarSetSectionEi@Qt_6 6.6.1
 _ZN15QBarModelMapper21setFirstBarSetSectionEi@Qt_6 6.6.1
 _ZN15QBarModelMapper8setCountEi@Qt_6 6.6.1
 _ZN15QBarModelMapper8setFirstEi@Qt_6 6.6.1
 _ZN15QBarModelMapper8setModelEP18QAbstractItemModel@Qt_6 6.6.1
 _ZN15QBarModelMapper9setSeriesEP18QAbstractBarSeries@Qt_6 6.6.1
 _ZN15QBarModelMapperC1EP7QObject@Qt_6 6.6.1
 _ZN15QBarModelMapperC2EP7QObject@Qt_6 6.6.1
 _ZN15QCandlestickSet10lowChangedEv@Qt_6 6.6.1
 _ZN15QCandlestickSet10penChangedEv@Qt_6 6.6.1
 _ZN15QCandlestickSet11highChangedEv@Qt_6 6.6.1
 _ZN15QCandlestickSet11openChangedEv@Qt_6 6.6.1
 _ZN15QCandlestickSet11qt_metacallEN11QMetaObject4CallEiPPv@Qt_6 6.6.1
 _ZN15QCandlestickSet11qt_metacastEPKc@Qt_6 6.6.1
 _ZN15QCandlestickSet12brushChangedEv@Qt_6 6.6.1
 _ZN15QCandlestickSet12closeChangedEv@Qt_6 6.6.1
 _ZN15QCandlestickSet12setTimestampEd@Qt_6 6.6.1
 _ZN15QCandlestickSet13doubleClickedEv@Qt_6 6.6.1
 _ZN15QCandlestickSet16staticMetaObjectE@Qt_6 6.6.1
 _ZN15QCandlestickSet16timestampChangedEv@Qt_6 6.6.1
 _ZN15QCandlestickSet6setLowEd@Qt_6 6.6.1
 _ZN15QCandlestickSet6setPenERK4QPen@Qt_6 6.6.1
 _ZN15QCandlestickSet7clickedEv@Qt_6 6.6.1
 _ZN15QCandlestickSet7hoveredEb@Qt_6 6.6.1
 _ZN15QCandlestickSet7pressedEv@Qt_6 6.6.1
 _ZN15QCandlestickSet7setHighEd@Qt_6 6.6.1
 _ZN15QCandlestickSet7setOpenEd@Qt_6 6.6.1
 _ZN15QCandlestickSet8releasedEv@Qt_6 6.6.1
 _ZN15QCandlestickSet8setBrushERK6QBrush@Qt_6 6.6.1
 _ZN15QCandlestickSet8setCloseEd@Qt_6 6.6.1
 _ZN15QCandlestickSetC1EdP7QObject@Qt_6 6.6.1
 _ZN15QCandlestickSetC1EdddddP7QObject@Qt_6 6.6.1
 _ZN15QCandlestickSetC2EdP7QObject@Qt_6 6.6.1
 _ZN15QCandlestickSetC2EdddddP7QObject@Qt_6 6.6.1
 _ZN15QCandlestickSetD0Ev@Qt_6 6.6.1
 _ZN15QCandlestickSetD1Ev@Qt_6 6.6.1
 _ZN15QCandlestickSetD2Ev@Qt_6 6.6.1
 _ZN15QHXYModelMapper11qt_metacallEN11QMetaObject4CallEiPPv@Qt_6 6.6.1
 _ZN15QHXYModelMapper11qt_metacastEPKc@Qt_6 6.6.1
 _ZN15QHXYModelMapper11xRowChangedEv@Qt_6 6.6.1
 _ZN15QHXYModelMapper11yRowChangedEv@Qt_6 6.6.1
 _ZN15QHXYModelMapper13modelReplacedEv@Qt_6 6.6.1
 _ZN15QHXYModelMapper14seriesReplacedEv@Qt_6 6.6.1
 _ZN15QHXYModelMapper14setColumnCountEi@Qt_6 6.6.1
 _ZN15QHXYModelMapper14setFirstColumnEi@Qt_6 6.6.1
 _ZN15QHXYModelMapper16staticMetaObjectE@Qt_6 6.6.1
 _ZN15QHXYModelMapper18columnCountChangedEv@Qt_6 6.6.1
 _ZN15QHXYModelMapper18firstColumnChangedEv@Qt_6 6.6.1
 _ZN15QHXYModelMapper7setXRowEi@Qt_6 6.6.1
 _ZN15QHXYModelMapper7setYRowEi@Qt_6 6.6.1
 _ZN15QHXYModelMapper8setModelEP18QAbstractItemModel@Qt_6 6.6.1
 _ZN15QHXYModelMapper9setSeriesEP9QXYSeries@Qt_6 6.6.1
 _ZN15QHXYModelMapperC1EP7QObject@Qt_6 6.6.1
 _ZN15QHXYModelMapperC2EP7QObject@Qt_6 6.6.1
 _ZN15QPieModelMapper11qt_metacallEN11QMetaObject4CallEiPPv@Qt_6 6.6.1
 _ZN15QPieModelMapper11qt_metacastEPKc@Qt_6 6.6.1
 _ZN15QPieModelMapper14setOrientationEN2Qt11OrientationE@Qt_6 6.6.1
 _ZN15QPieModelMapper16setLabelsSectionEi@Qt_6 6.6.1
 _ZN15QPieModelMapper16setValuesSectionEi@Qt_6 6.6.1
 _ZN15QPieModelMapper16staticMetaObjectE@Qt_6 6.6.1
 _ZN15QPieModelMapper8setCountEi@Qt_6 6.6.1
 _ZN15QPieModelMapper8setFirstEi@Qt_6 6.6.1
 _ZN15QPieModelMapper8setModelEP18QAbstractItemModel@Qt_6 6.6.1
 _ZN15QPieModelMapper9setSeriesEP10QPieSeries@Qt_6 6.6.1
 _ZN15QPieModelMapperC1EP7QObject@Qt_6 6.6.1
 _ZN15QPieModelMapperC2EP7QObject@Qt_6 6.6.1
 _ZN15QVXYModelMapper10setXColumnEi@Qt_6 6.6.1
 _ZN15QVXYModelMapper10setYColumnEi@Qt_6 6.6.1
 _ZN15QVXYModelMapper11qt_metacallEN11QMetaObject4CallEiPPv@Qt_6 6.6.1
 _ZN15QVXYModelMapper11qt_metacastEPKc@Qt_6 6.6.1
 _ZN15QVXYModelMapper11setFirstRowEi@Qt_6 6.6.1
 _ZN15QVXYModelMapper11setRowCountEi@Qt_6 6.6.1
 _ZN15QVXYModelMapper13modelReplacedEv@Qt_6 6.6.1
 _ZN15QVXYModelMapper14seriesReplacedEv@Qt_6 6.6.1
 _ZN15QVXYModelMapper14xColumnChangedEv@Qt_6 6.6.1
 _ZN15QVXYModelMapper14yColumnChangedEv@Qt_6 6.6.1
 _ZN15QVXYModelMapper15firstRowChangedEv@Qt_6 6.6.1
 _ZN15QVXYModelMapper15rowCountChangedEv@Qt_6 6.6.1
 _ZN15QVXYModelMapper16staticMetaObjectE@Qt_6 6.6.1
 _ZN15QVXYModelMapper8setModelEP18QAbstractItemModel@Qt_6 6.6.1
 _ZN15QVXYModelMapper9setSeriesEP9QXYSeries@Qt_6 6.6.1
 _ZN15QVXYModelMapperC1EP7QObject@Qt_6 6.6.1
 _ZN15QVXYModelMapperC2EP7QObject@Qt_6 6.6.1
 _ZN15QXYLegendMarker11qt_metacallEN11QMetaObject4CallEiPPv@Qt_6 6.6.1
 _ZN15QXYLegendMarker11qt_metacastEPKc@Qt_6 6.6.1
 _ZN15QXYLegendMarker16staticMetaObjectE@Qt_6 6.6.1
 _ZN15QXYLegendMarker6seriesEv@Qt_6 6.6.1
 _ZN15QXYLegendMarkerC1EP9QXYSeriesP7QLegendP7QObject@Qt_6 6.6.1
 _ZN15QXYLegendMarkerC1ER22QXYLegendMarkerPrivateP7QObject@Qt_6_PRIVATE_API 6.6.1
 _ZN15QXYLegendMarkerC2EP9QXYSeriesP7QLegendP7QObject@Qt_6 6.6.1
 _ZN15QXYLegendMarkerC2ER22QXYLegendMarkerPrivateP7QObject@Qt_6_PRIVATE_API 6.6.1
 _ZN15QXYLegendMarkerD0Ev@Qt_6 6.6.1
 _ZN15QXYLegendMarkerD1Ev@Qt_6 6.6.1
 _ZN15QXYLegendMarkerD2Ev@Qt_6 6.6.1
 _ZN15SplineAnimation11updateStateEN18QAbstractAnimation5StateES1_@Qt_6_PRIVATE_API 6.6.1
 _ZN15SplineAnimation18updateCurrentValueERK8QVariant@Qt_6_PRIVATE_API 6.6.1
 _ZN15SplineAnimation5setupERK5QListI7QPointFES4_S4_S4_i@Qt_6_PRIVATE_API 6.6.1
 _ZN15SplineAnimationC1EP15SplineChartItemiR12QEasingCurve@Qt_6_PRIVATE_API 6.6.1
 _ZN15SplineAnimationC2EP15SplineChartItemiR12QEasingCurve@Qt_6_PRIVATE_API 6.6.1
 _ZN15SplineAnimationD0Ev@Qt_6_PRIVATE_API 6.6.1
 _ZN15SplineAnimationD1Ev@Qt_6_PRIVATE_API 6.6.1
 _ZN15SplineAnimationD2Ev@Qt_6_PRIVATE_API 6.6.1
 _ZN15SplineChartItem11qt_metacallEN11QMetaObject4CallEiPPv@Qt_6_PRIVATE_API 6.6.1
 _ZN15SplineChartItem11qt_metacastEPKc@Qt_6_PRIVATE_API 6.6.1
 _ZN15SplineChartItem11updateChartERK5QListI7QPointFES4_i@Qt_6_PRIVATE_API 6.6.1
 _ZN15SplineChartItem12setAnimationEP15SplineAnimation@Qt_6_PRIVATE_API 6.6.1
 _ZN15SplineChartItem14updateGeometryEv@Qt_6_PRIVATE_API 6.6.1
 _ZN15SplineChartItem15hoverEnterEventEP24QGraphicsSceneHoverEvent@Qt_6_PRIVATE_API 6.6.1
 _ZN15SplineChartItem15hoverLeaveEventEP24QGraphicsSceneHoverEvent@Qt_6_PRIVATE_API 6.6.1
 _ZN15SplineChartItem15mousePressEventEP24QGraphicsSceneMouseEvent@Qt_6_PRIVATE_API 6.6.1
 _ZN15SplineChartItem16staticMetaObjectE@Qt_6_PRIVATE_API 6.6.1
 _ZN15SplineChartItem17mouseReleaseEventEP24QGraphicsSceneMouseEvent@Qt_6_PRIVATE_API 6.6.1
 _ZN15SplineChartItem18firstControlPointsERK5QListIdE@Qt_6_PRIVATE_API 6.6.1
 _ZN15SplineChartItem19handleSeriesUpdatedEv@Qt_6_PRIVATE_API 6.6.1
 _ZN15SplineChartItem21mouseDoubleClickEventEP24QGraphicsSceneMouseEvent@Qt_6_PRIVATE_API 6.6.1
 _ZN15SplineChartItem22calculateControlPointsERK5QListI7QPointFE@Qt_6_PRIVATE_API 6.6.1
 _ZN15SplineChartItem24setControlGeometryPointsERK5QListI7QPointFE@Qt_6_PRIVATE_API 6.6.1
 _ZN15SplineChartItem5paintEP8QPainterPK24QStyleOptionGraphicsItemP7QWidget@Qt_6_PRIVATE_API 6.6.1
 _ZN15SplineChartItemC1EP13QSplineSeriesP13QGraphicsItem@Qt_6_PRIVATE_API 6.6.1
 _ZN15SplineChartItemC2EP13QSplineSeriesP13QGraphicsItem@Qt_6_PRIVATE_API 6.6.1
 _ZN16BoxPlotAnimation11qt_metacallEN11QMetaObject4CallEiPPv@Qt_6_PRIVATE_API 6.6.1
 _ZN16BoxPlotAnimation11qt_metacastEPKc@Qt_6_PRIVATE_API 6.6.1
 _ZN16BoxPlotAnimation12boxAnimationEP11BoxWhiskers@Qt_6_PRIVATE_API 6.6.1
 _ZN16BoxPlotAnimation16staticMetaObjectE@Qt_6_PRIVATE_API 6.6.1
 _ZN16BoxPlotAnimation17setAnimationStartEP11BoxWhiskers@Qt_6_PRIVATE_API 6.6.1
 _ZN16BoxPlotAnimation18boxChangeAnimationEP11BoxWhiskers@Qt_6_PRIVATE_API 6.6.1
 _ZN16BoxPlotAnimation18removeBoxAnimationEP11BoxWhiskers@Qt_6_PRIVATE_API 6.6.1
 _ZN16BoxPlotAnimation6addBoxEP11BoxWhiskers@Qt_6_PRIVATE_API 6.6.1
 _ZN16BoxPlotAnimation7stopAllEv@Qt_6_PRIVATE_API 6.6.1
 _ZN16BoxPlotAnimationC1EP16BoxPlotChartItemiR12QEasingCurve@Qt_6_PRIVATE_API 6.6.1
 _ZN16BoxPlotAnimationC2EP16BoxPlotChartItemiR12QEasingCurve@Qt_6_PRIVATE_API 6.6.1
 _ZN16BoxPlotAnimationD0Ev@Qt_6_PRIVATE_API 6.6.1
 _ZN16BoxPlotAnimationD1Ev@Qt_6_PRIVATE_API 6.6.1
 _ZN16BoxPlotAnimationD2Ev@Qt_6_PRIVATE_API 6.6.1
 _ZN16BoxPlotChartItem11qt_metacallEN11QMetaObject4CallEiPPv@Qt_6_PRIVATE_API 6.6.1
 _ZN16BoxPlotChartItem11qt_metacastEPKc@Qt_6_PRIVATE_API 6.6.1
 _ZN16BoxPlotChartItem12setAnimationEP16BoxPlotAnimation@Qt_6_PRIVATE_API 6.6.1
 _ZN16BoxPlotChartItem15calculateLayoutEv@Qt_6_PRIVATE_API 6.6.1
 _ZN16BoxPlotChartItem16initializeLayoutEv@Qt_6_PRIVATE_API 6.6.1
 _ZN16BoxPlotChartItem16staticMetaObjectE@Qt_6_PRIVATE_API 6.6.1
 _ZN16BoxPlotChartItem17handleUpdatedBarsEv@Qt_6_PRIVATE_API 6.6.1
 _ZN16BoxPlotChartItem17updateBoxGeometryEP11BoxWhiskersi@Qt_6_PRIVATE_API 6.6.1
 _ZN16BoxPlotChartItem18handleBoxsetRemoveERK5QListIP7QBoxSetE@Qt_6_PRIVATE_API 6.6.1
 _ZN16BoxPlotChartItem19handleDomainUpdatedEv@Qt_6_PRIVATE_API 6.6.1
 _ZN16BoxPlotChartItem19handleLayoutChangedEv@Qt_6_PRIVATE_API 6.6.1
 _ZN16BoxPlotChartItem20handleOpacityChangedEv@Qt_6_PRIVATE_API 6.6.1
 _ZN16BoxPlotChartItem26handleDataStructureChangedEv@Qt_6_PRIVATE_API 6.6.1
 _ZN16BoxPlotChartItem26handleSeriesVisibleChangedEv@Qt_6_PRIVATE_API 6.6.1
 _ZN16BoxPlotChartItem5paintEP8QPainterPK24QStyleOptionGraphicsItemP7QWidget@Qt_6_PRIVATE_API 6.6.1
 _ZN16BoxPlotChartItemC1EP14QBoxPlotSeriesP13QGraphicsItem@Qt_6_PRIVATE_API 6.6.1
 _ZN16BoxPlotChartItemC2EP14QBoxPlotSeriesP13QGraphicsItem@Qt_6_PRIVATE_API 6.6.1
 _ZN16BoxPlotChartItemD0Ev@Qt_6_PRIVATE_API 6.6.1
 _ZN16BoxPlotChartItemD1Ev@Qt_6_PRIVATE_API 6.6.1
 _ZN16BoxPlotChartItemD2Ev@Qt_6_PRIVATE_API 6.6.1
 _ZN16ChartAxisElement11qt_metacallEN11QMetaObject4CallEiPPv@Qt_6_PRIVATE_API 6.6.1
 _ZN16ChartAxisElement11qt_metacastEPKc@Qt_6_PRIVATE_API 6.6.1
 _ZN16ChartAxisElement12axisSelectedEv@Qt_6_PRIVATE_API 6.6.1
 _ZN16ChartAxisElement12connectSlotsEv@Qt_6_PRIVATE_API 6.6.1
 _ZN16ChartAxisElement16staticMetaObjectE@Qt_6_PRIVATE_API 6.6.1
 _ZN16ChartAxisElement16valueLabelEditedEdd@Qt_6_PRIVATE_API 6.6.1
 _ZN16ChartAxisElement17prepareColorScaleEdd@Qt_6_PRIVATE_API 6.6.1
 _ZN16ChartAxisElement17setLabelsEditableEb@Qt_6_PRIVATE_API 6.6.1
 _ZN16ChartAxisElement18handleRangeChangedEdd@Qt_6_PRIVATE_API 6.6.1
 _ZN16ChartAxisElement19dateTimeLabelEditedERK9QDateTimeS2_@Qt_6_PRIVATE_API 6.6.1
 _ZN16ChartAxisElement20handleReverseChangedEb@Qt_6_PRIVATE_API 6.6.1
 _ZN16ChartAxisElement20handleVisibleChangedEb@Qt_6_PRIVATE_API 6.6.1
 _ZN16ChartAxisElement22handleTitleFontChangedERK5QFont@Qt_6_PRIVATE_API 6.6.1
 _ZN16ChartAxisElement22handleTitleTextChangedERK7QString@Qt_6_PRIVATE_API 6.6.1
 _ZN16ChartAxisElement23handleLabelsFontChangedERK5QFont@Qt_6_PRIVATE_API 6.6.1
 _ZN16ChartAxisElement23handleTitleBrushChangedERK6QBrush@Qt_6_PRIVATE_API 6.6.1
 _ZN16ChartAxisElement24handleGridVisibleChangedEb@Qt_6_PRIVATE_API 6.6.1
 _ZN16ChartAxisElement24handleLabelsAngleChangedEi@Qt_6_PRIVATE_API 6.6.1
 _ZN16ChartAxisElement24handleLabelsBrushChangedERK6QBrush@Qt_6_PRIVATE_API 6.6.1
 _ZN16ChartAxisElement25handleArrowVisibleChangedEb@Qt_6_PRIVATE_API 6.6.1
 _ZN16ChartAxisElement25handleTitleVisibleChangedEb@Qt_6_PRIVATE_API 6.6.1
 _ZN16ChartAxisElement26handleLabelsVisibleChangedEb@Qt_6_PRIVATE_API 6.6.1
 _ZN16ChartAxisElement26handleShadesVisibleChangedEb@Qt_6_PRIVATE_API 6.6.1
 _ZN16ChartAxisElement27handleColorScaleSizeChangedEv@Qt_6_PRIVATE_API 6.6.1
 _ZN16ChartAxisElement27handleLabelsPositionChangedEv@Qt_6_PRIVATE_API 6.6.1
 _ZN16ChartAxisElement27handleTruncateLabelsChangedEv@Qt_6_PRIVATE_API 6.6.1
 _ZN16ChartAxisElement29handleMinorGridVisibleChangedEb@Qt_6_PRIVATE_API 6.6.1
 _ZN16ChartAxisElement30handleMinorArrowVisibleChangedEb@Qt_6_PRIVATE_API 6.6.1
 _ZN16ChartAxisElement31handleColorScaleGradientChangedEv@Qt_6_PRIVATE_API 6.6.1
 _ZN16ChartAxisElement7clickedEv@Qt_6_PRIVATE_API 6.6.1
 _ZN16ChartAxisElementC1EP13QAbstractAxisP13QGraphicsItemb@Qt_6_PRIVATE_API 6.6.1
 _ZN16ChartAxisElementC2EP13QAbstractAxisP13QGraphicsItemb@Qt_6_PRIVATE_API 6.6.1
 _ZN16ChartAxisElementD0Ev@Qt_6_PRIVATE_API 6.6.1
 _ZN16ChartAxisElementD1Ev@Qt_6_PRIVATE_API 6.6.1
 _ZN16ChartAxisElementD2Ev@Qt_6_PRIVATE_API 6.6.1
 _ZN16LegendMarkerItem10setToolTipERK7QString@Qt_6_PRIVATE_API 6.6.1
 _ZN16LegendMarkerItem11qt_metacallEN11QMetaObject4CallEiPPv@Qt_6_PRIVATE_API 6.6.1
 _ZN16LegendMarkerItem11qt_metacastEPKc@Qt_6_PRIVATE_API 6.6.1
 _ZN16LegendMarkerItem11setGeometryERK6QRectF@Qt_6_PRIVATE_API 6.6.1
 _ZN16LegendMarkerItem11setItemRectEv@Qt_6_PRIVATE_API 6.6.1
 _ZN16LegendMarkerItem12setSeriesPenERK4QPen@Qt_6_PRIVATE_API 6.6.1
 _ZN16LegendMarkerItem13setLabelBrushERK6QBrush@Qt_6_PRIVATE_API 6.6.1
 _ZN16LegendMarkerItem14setMarkerShapeEN7QLegend11MarkerShapeE@Qt_6_PRIVATE_API 6.6.1
 _ZN16LegendMarkerItem14setSeriesBrushERK6QBrush@Qt_6_PRIVATE_API 6.6.1
 _ZN16LegendMarkerItem15hoverEnterEventEP24QGraphicsSceneHoverEvent@Qt_6_PRIVATE_API 6.6.1
 _ZN16LegendMarkerItem15hoverLeaveEventEP24QGraphicsSceneHoverEvent@Qt_6_PRIVATE_API 6.6.1
 _ZN16LegendMarkerItem16staticMetaObjectE@Qt_6_PRIVATE_API 6.6.1
 _ZN16LegendMarkerItem17markerRectChangedEv@Qt_6_PRIVATE_API 6.6.1
 _ZN16LegendMarkerItem18setItemBrushAndPenEv@Qt_6_PRIVATE_API 6.6.1
 _ZN16LegendMarkerItem20setSeriesLightMarkerERK6QImage@Qt_6_PRIVATE_API 6.6.1
 _ZN16LegendMarkerItem24updateMarkerShapeAndSizeEv@Qt_6_PRIVATE_API 6.6.1
 _ZN16LegendMarkerItem5paintEP8QPainterPK24QStyleOptionGraphicsItemP7QWidget@Qt_6_PRIVATE_API 6.6.1
 _ZN16LegendMarkerItem6setPenERK4QPen@Qt_6_PRIVATE_API 6.6.1
 _ZN16LegendMarkerItem7setFontERK5QFont@Qt_6_PRIVATE_API 6.6.1
 _ZN16LegendMarkerItem8setBrushERK6QBrush@Qt_6_PRIVATE_API 6.6.1
 _ZN16LegendMarkerItem8setLabelE7QString@Qt_6_PRIVATE_API 6.6.1
 _ZN16LegendMarkerItemC1EP20QLegendMarkerPrivateP15QGraphicsObject@Qt_6_PRIVATE_API 6.6.1
 _ZN16LegendMarkerItemC2EP20QLegendMarkerPrivateP15QGraphicsObject@Qt_6_PRIVATE_API 6.6.1
 _ZN16LegendMarkerItemD0Ev@Qt_6_PRIVATE_API 6.6.1
 _ZN16LegendMarkerItemD1Ev@Qt_6_PRIVATE_API 6.6.1
 _ZN16LegendMarkerItemD2Ev@Qt_6_PRIVATE_API 6.6.1
 _ZN16LogXYPolarDomain10attachAxisEP13QAbstractAxis@Qt_6_PRIVATE_API 6.6.1
 _ZN16LogXYPolarDomain10detachAxisEP13QAbstractAxis@Qt_6_PRIVATE_API 6.6.1
 _ZN16LogXYPolarDomain11qt_metacallEN11QMetaObject4CallEiPPv@Qt_6_PRIVATE_API 6.6.1
 _ZN16LogXYPolarDomain11qt_metacastEPKc@Qt_6_PRIVATE_API 6.6.1
 _ZN16LogXYPolarDomain16staticMetaObjectE@Qt_6_PRIVATE_API 6.6.1
 _ZN16LogXYPolarDomain31handleHorizontalAxisBaseChangedEd@Qt_6_PRIVATE_API 6.6.1
 _ZN16LogXYPolarDomain4moveEdd@Qt_6_PRIVATE_API 6.6.1
 _ZN16LogXYPolarDomain6zoomInERK6QRectF@Qt_6_PRIVATE_API 6.6.1
 _ZN16LogXYPolarDomain7zoomOutERK6QRectF@Qt_6_PRIVATE_API 6.6.1
 _ZN16LogXYPolarDomain8setRangeEdddd@Qt_6_PRIVATE_API 6.6.1
 _ZN16LogXYPolarDomainC1EP7QObject@Qt_6_PRIVATE_API 6.6.1
 _ZN16LogXYPolarDomainC2EP7QObject@Qt_6_PRIVATE_API 6.6.1
 _ZN16LogXYPolarDomainD0Ev@Qt_6_PRIVATE_API 6.6.1
 _ZN16LogXYPolarDomainD1Ev@Qt_6_PRIVATE_API 6.6.1
 _ZN16LogXYPolarDomainD2Ev@Qt_6_PRIVATE_API 6.6.1
 _ZN16PolarChartLayoutC1EP14ChartPresenter@Qt_6_PRIVATE_API 6.6.1
 _ZN16PolarChartLayoutC2EP14ChartPresenter@Qt_6_PRIVATE_API 6.6.1
 _ZN16PolarChartLayoutD0Ev@Qt_6_PRIVATE_API 6.6.1
 _ZN16PolarChartLayoutD1Ev@Qt_6_PRIVATE_API 6.6.1
 _ZN16PolarChartLayoutD2Ev@Qt_6_PRIVATE_API 6.6.1
 _ZN16QBarCategoryAxis10categoriesEv@Qt_6 6.6.1
 _ZN16QBarCategoryAxis10maxChangedERK7QString@Qt_6 6.6.1
 _ZN16QBarCategoryAxis10minChangedERK7QString@Qt_6 6.6.1
 _ZN16QBarCategoryAxis11qt_metacallEN11QMetaObject4CallEiPPv@Qt_6 6.6.1
 _ZN16QBarCategoryAxis11qt_metacastEPKc@Qt_6 6.6.1
 _ZN16QBarCategoryAxis12countChangedEv@Qt_6 6.6.1
 _ZN16QBarCategoryAxis12rangeChangedERK7QStringS2_@Qt_6 6.6.1
 _ZN16QBarCategoryAxis13setCategoriesERK5QListI7QStringE@Qt_6 6.6.1
 _ZN16QBarCategoryAxis16staticMetaObjectE@Qt_6 6.6.1
 _ZN16QBarCategoryAxis17categoriesChangedEv@Qt_6 6.6.1
 _ZN16QBarCategoryAxis5clearEv@Qt_6 6.6.1
 _ZN16QBarCategoryAxis6appendERK5QListI7QStringE@Qt_6 6.6.1
 _ZN16QBarCategoryAxis6appendERK7QString@Qt_6 6.6.1
 _ZN16QBarCategoryAxis6insertEiRK7QString@Qt_6 6.6.1
 _ZN16QBarCategoryAxis6removeERK7QString@Qt_6 6.6.1
 _ZN16QBarCategoryAxis6setMaxERK7QString@Qt_6 6.6.1
 _ZN16QBarCategoryAxis6setMinERK7QString@Qt_6 6.6.1
 _ZN16QBarCategoryAxis7replaceERK7QStringS2_@Qt_6 6.6.1
 _ZN16QBarCategoryAxis8setRangeERK7QStringS2_@Qt_6 6.6.1
 _ZN16QBarCategoryAxisC1EP7QObject@Qt_6 6.6.1
 _ZN16QBarCategoryAxisC1ER23QBarCategoryAxisPrivateP7QObject@Qt_6_PRIVATE_API 6.6.1
 _ZN16QBarCategoryAxisC2EP7QObject@Qt_6 6.6.1
 _ZN16QBarCategoryAxisC2ER23QBarCategoryAxisPrivateP7QObject@Qt_6_PRIVATE_API 6.6.1
 _ZN16QBarCategoryAxisD0Ev@Qt_6 6.6.1
 _ZN16QBarCategoryAxisD1Ev@Qt_6 6.6.1
 _ZN16QBarCategoryAxisD2Ev@Qt_6 6.6.1
 _ZN16QBarLegendMarker11qt_metacallEN11QMetaObject4CallEiPPv@Qt_6 6.6.1
 _ZN16QBarLegendMarker11qt_metacastEPKc@Qt_6 6.6.1
 _ZN16QBarLegendMarker16staticMetaObjectE@Qt_6 6.6.1
 _ZN16QBarLegendMarker6barsetEv@Qt_6 6.6.1
 _ZN16QBarLegendMarker6seriesEv@Qt_6 6.6.1
 _ZN16QBarLegendMarkerC1EP18QAbstractBarSeriesP7QBarSetP7QLegendP7QObject@Qt_6 6.6.1
 _ZN16QBarLegendMarkerC1ER23QBarLegendMarkerPrivateP7QObject@Qt_6_PRIVATE_API 6.6.1
 _ZN16QBarLegendMarkerC2EP18QAbstractBarSeriesP7QBarSetP7QLegendP7QObject@Qt_6 6.6.1
 _ZN16QBarLegendMarkerC2ER23QBarLegendMarkerPrivateP7QObject@Qt_6_PRIVATE_API 6.6.1
 _ZN16QBarLegendMarkerD0Ev@Qt_6 6.6.1
 _ZN16QBarLegendMarkerD1Ev@Qt_6 6.6.1
 _ZN16QBarLegendMarkerD2Ev@Qt_6 6.6.1
 _ZN16QHBarModelMapper11qt_metacallEN11QMetaObject4CallEiPPv@Qt_6 6.6.1
 _ZN16QHBarModelMapper11qt_metacastEPKc@Qt_6 6.6.1
 _ZN16QHBarModelMapper13modelReplacedEv@Qt_6 6.6.1
 _ZN16QHBarModelMapper14seriesReplacedEv@Qt_6 6.6.1
 _ZN16QHBarModelMapper14setColumnCountEi@Qt_6 6.6.1
 _ZN16QHBarModelMapper14setFirstColumnEi@Qt_6 6.6.1
 _ZN16QHBarModelMapper16setLastBarSetRowEi@Qt_6 6.6.1
 _ZN16QHBarModelMapper16staticMetaObjectE@Qt_6 6.6.1
 _ZN16QHBarModelMapper17setFirstBarSetRowEi@Qt_6 6.6.1
 _ZN16QHBarModelMapper18columnCountChangedEv@Qt_6 6.6.1
 _ZN16QHBarModelMapper18firstColumnChangedEv@Qt_6 6.6.1
 _ZN16QHBarModelMapper20lastBarSetRowChangedEv@Qt_6 6.6.1
 _ZN16QHBarModelMapper21firstBarSetRowChangedEv@Qt_6 6.6.1
 _ZN16QHBarModelMapper8setModelEP18QAbstractItemModel@Qt_6 6.6.1
 _ZN16QHBarModelMapper9setSeriesEP18QAbstractBarSeries@Qt_6 6.6.1
 _ZN16QHBarModelMapperC1EP7QObject@Qt_6 6.6.1
 _ZN16QHBarModelMapperC2EP7QObject@Qt_6 6.6.1
 _ZN16QHPieModelMapper11qt_metacallEN11QMetaObject4CallEiPPv@Qt_6 6.6.1
 _ZN16QHPieModelMapper11qt_metacastEPKc@Qt_6 6.6.1
 _ZN16QHPieModelMapper12setLabelsRowEi@Qt_6 6.6.1
 _ZN16QHPieModelMapper12setValuesRowEi@Qt_6 6.6.1
 _ZN16QHPieModelMapper13modelReplacedEv@Qt_6 6.6.1
 _ZN16QHPieModelMapper14seriesReplacedEv@Qt_6 6.6.1
 _ZN16QHPieModelMapper14setColumnCountEi@Qt_6 6.6.1
 _ZN16QHPieModelMapper14setFirstColumnEi@Qt_6 6.6.1
 _ZN16QHPieModelMapper16labelsRowChangedEv@Qt_6 6.6.1
 _ZN16QHPieModelMapper16staticMetaObjectE@Qt_6 6.6.1
 _ZN16QHPieModelMapper16valuesRowChangedEv@Qt_6 6.6.1
 _ZN16QHPieModelMapper18columnCountChangedEv@Qt_6 6.6.1
 _ZN16QHPieModelMapper18firstColumnChangedEv@Qt_6 6.6.1
 _ZN16QHPieModelMapper8setModelEP18QAbstractItemModel@Qt_6 6.6.1
 _ZN16QHPieModelMapper9setSeriesEP10QPieSeries@Qt_6 6.6.1
 _ZN16QHPieModelMapperC1EP7QObject@Qt_6 6.6.1
 _ZN16QHPieModelMapperC2EP7QObject@Qt_6 6.6.1
 _ZN16QMetaAssociation15MetaAssociationI5QHashIN9QXYSeries18PointConfigurationE8QVariantEE5valueE@Qt_6 6.6.1
 _ZN16QMetaAssociation15MetaAssociationI5QHashIiS1_IN9QXYSeries18PointConfigurationE8QVariantEEE5valueE@Qt_6 6.6.1
 _ZN16QPieLegendMarker11qt_metacallEN11QMetaObject4CallEiPPv@Qt_6 6.6.1
 _ZN16QPieLegendMarker11qt_metacastEPKc@Qt_6 6.6.1
 _ZN16QPieLegendMarker16staticMetaObjectE@Qt_6 6.6.1
 _ZN16QPieLegendMarker5sliceEv@Qt_6 6.6.1
 _ZN16QPieLegendMarker6seriesEv@Qt_6 6.6.1
 _ZN16QPieLegendMarkerC1EP10QPieSeriesP9QPieSliceP7QLegendP7QObject@Qt_6 6.6.1
 _ZN16QPieLegendMarkerC1ER23QPieLegendMarkerPrivateP7QObject@Qt_6_PRIVATE_API 6.6.1
 _ZN16QPieLegendMarkerC2EP10QPieSeriesP9QPieSliceP7QLegendP7QObject@Qt_6 6.6.1
 _ZN16QPieLegendMarkerC2ER23QPieLegendMarkerPrivateP7QObject@Qt_6_PRIVATE_API 6.6.1
 _ZN16QPieLegendMarkerD0Ev@Qt_6 6.6.1
 _ZN16QPieLegendMarkerD1Ev@Qt_6 6.6.1
 _ZN16QPieLegendMarkerD2Ev@Qt_6 6.6.1
 _ZN16QPieSlicePrivate11qt_metacallEN11QMetaObject4CallEiPPv@Qt_6_PRIVATE_API 6.6.1
 _ZN16QPieSlicePrivate11qt_metacastEPKc@Qt_6_PRIVATE_API 6.6.1
 _ZN16QPieSlicePrivate12setAngleSpanEd@Qt_6_PRIVATE_API 6.6.1
 _ZN16QPieSlicePrivate12setLabelFontERK5QFontb@Qt_6_PRIVATE_API 6.6.1
 _ZN16QPieSlicePrivate13setLabelBrushERK6QBrushb@Qt_6_PRIVATE_API 6.6.1
 _ZN16QPieSlicePrivate13setPercentageEd@Qt_6_PRIVATE_API 6.6.1
 _ZN16QPieSlicePrivate13setStartAngleEd@Qt_6_PRIVATE_API 6.6.1
 _ZN16QPieSlicePrivate15explodedChangedEv@Qt_6_PRIVATE_API 6.6.1
 _ZN16QPieSlicePrivate16staticMetaObjectE@Qt_6_PRIVATE_API 6.6.1
 _ZN16QPieSlicePrivate20labelPositionChangedEv@Qt_6_PRIVATE_API 6.6.1
 _ZN16QPieSlicePrivate27labelArmLengthFactorChangedEv@Qt_6_PRIVATE_API 6.6.1
 _ZN16QPieSlicePrivate28explodeDistanceFactorChangedEv@Qt_6_PRIVATE_API 6.6.1
 _ZN16QPieSlicePrivate6setPenERK4QPenb@Qt_6_PRIVATE_API 6.6.1
 _ZN16QPieSlicePrivate8setBrushERK6QBrushb@Qt_6_PRIVATE_API 6.6.1
 _ZN16QPieSlicePrivate9fromSliceEP9QPieSlice@Qt_6_PRIVATE_API 6.6.1
 _ZN16QPieSlicePrivateC1EP9QPieSlice@Qt_6_PRIVATE_API 6.6.1
 _ZN16QPieSlicePrivateC2EP9QPieSlice@Qt_6_PRIVATE_API 6.6.1
 _ZN16QPieSlicePrivateD0Ev@Qt_6_PRIVATE_API 6.6.1
 _ZN16QPieSlicePrivateD1Ev@Qt_6_PRIVATE_API 6.6.1
 _ZN16QPieSlicePrivateD2Ev@Qt_6_PRIVATE_API 6.6.1
 _ZN16QVBarModelMapper11qt_metacallEN11QMetaObject4CallEiPPv@Qt_6 6.6.1
 _ZN16QVBarModelMapper11qt_metacastEPKc@Qt_6 6.6.1
 _ZN16QVBarModelMapper11setFirstRowEi@Qt_6 6.6.1
 _ZN16QVBarModelMapper11setRowCountEi@Qt_6 6.6.1
 _ZN16QVBarModelMapper13modelReplacedEv@Qt_6 6.6.1
 _ZN16QVBarModelMapper14seriesReplacedEv@Qt_6 6.6.1
 _ZN16QVBarModelMapper15firstRowChangedEv@Qt_6 6.6.1
 _ZN16QVBarModelMapper15rowCountChangedEv@Qt_6 6.6.1
 _ZN16QVBarModelMapper16staticMetaObjectE@Qt_6 6.6.1
 _ZN16QVBarModelMapper19setLastBarSetColumnEi@Qt_6 6.6.1
 _ZN16QVBarModelMapper20setFirstBarSetColumnEi@Qt_6 6.6.1
 _ZN16QVBarModelMapper23lastBarSetColumnChangedEv@Qt_6 6.6.1
 _ZN16QVBarModelMapper24firstBarSetColumnChangedEv@Qt_6 6.6.1
 _ZN16QVBarModelMapper8setModelEP18QAbstractItemModel@Qt_6 6.6.1
 _ZN16QVBarModelMapper9setSeriesEP18QAbstractBarSeries@Qt_6 6.6.1
 _ZN16QVBarModelMapperC1EP7QObject@Qt_6 6.6.1
 _ZN16QVBarModelMapperC2EP7QObject@Qt_6 6.6.1
 _ZN16QVPieModelMapper11qt_metacallEN11QMetaObject4CallEiPPv@Qt_6 6.6.1
 _ZN16QVPieModelMapper11qt_metacastEPKc@Qt_6 6.6.1
 _ZN16QVPieModelMapper11setFirstRowEi@Qt_6 6.6.1
 _ZN16QVPieModelMapper11setRowCountEi@Qt_6 6.6.1
 _ZN16QVPieModelMapper13modelReplacedEv@Qt_6 6.6.1
 _ZN16QVPieModelMapper14seriesReplacedEv@Qt_6 6.6.1
 _ZN16QVPieModelMapper15firstRowChangedEv@Qt_6 6.6.1
 _ZN16QVPieModelMapper15rowCountChangedEv@Qt_6 6.6.1
 _ZN16QVPieModelMapper15setLabelsColumnEi@Qt_6 6.6.1
 _ZN16QVPieModelMapper15setValuesColumnEi@Qt_6 6.6.1
 _ZN16QVPieModelMapper16staticMetaObjectE@Qt_6 6.6.1
 _ZN16QVPieModelMapper19labelsColumnChangedEv@Qt_6 6.6.1
 _ZN16QVPieModelMapper19valuesColumnChangedEv@Qt_6 6.6.1
 _ZN16QVPieModelMapper8setModelEP18QAbstractItemModel@Qt_6 6.6.1
 _ZN16QVPieModelMapper9setSeriesEP10QPieSeries@Qt_6 6.6.1
 _ZN16QVPieModelMapperC1EP7QObject@Qt_6 6.6.1
 _ZN16QVPieModelMapperC2EP7QObject@Qt_6 6.6.1
 _ZN16QXYSeriesPrivate11qt_metacallEN11QMetaObject4CallEiPPv@Qt_6_PRIVATE_API 6.6.1
 _ZN16QXYSeriesPrivate11qt_metacastEPKc@Qt_6_PRIVATE_API 6.6.1
 _ZN16QXYSeriesPrivate13seriesUpdatedEv@Qt_6_PRIVATE_API 6.6.1
 _ZN16QXYSeriesPrivate13setMarkerSizeEd@Qt_6_PRIVATE_API 6.6.1
 _ZN16QXYSeriesPrivate14initializeAxesEv@Qt_6_PRIVATE_API 6.6.1
 _ZN16QXYSeriesPrivate15drawBestFitLineEP8QPainterRK6QRectF@Qt_6_PRIVATE_API 6.6.1
 _ZN16QXYSeriesPrivate15drawPointLabelsEP8QPainterRK5QListI7QPointFEi@Qt_6_PRIVATE_API 6.6.1
 _ZN16QXYSeriesPrivate15isPointSelectedEi@Qt_6_PRIVATE_API 6.6.1
 _ZN16QXYSeriesPrivate16initializeDomainEv@Qt_6_PRIVATE_API 6.6.1
 _ZN16QXYSeriesPrivate16setPointSelectedEibRb@Qt_6_PRIVATE_API 6.6.1
 _ZN16QXYSeriesPrivate16staticMetaObjectE@Qt_6_PRIVATE_API 6.6.1
 _ZN16QXYSeriesPrivate19createLegendMarkersEP7QLegend@Qt_6_PRIVATE_API 6.6.1
 _ZN16QXYSeriesPrivate19isMarkerSizeDefaultEv@Qt_6_PRIVATE_API 6.6.1
 _ZN16QXYSeriesPrivate20initializeAnimationsE6QFlagsIN6QChart15AnimationOptionEEiR12QEasingCurve@Qt_6_PRIVATE_API 6.6.1
 _ZN16QXYSeriesPrivate21drawSeriesPointLabelsEP8QPainterRK5QListI7QPointFEiRK5QHashIiiERKS2_IiERKS7_Ii7QStringE@Qt_6_PRIVATE_API 6.6.1
 _ZN16QXYSeriesPrivate21setPointConfigurationEiN9QXYSeries18PointConfigurationERK8QVariant@Qt_6_PRIVATE_API 6.6.1
 _ZN16QXYSeriesPrivateC1EP9QXYSeries@Qt_6_PRIVATE_API 6.6.1
 _ZN16QXYSeriesPrivateC2EP9QXYSeries@Qt_6_PRIVATE_API 6.6.1
 _ZN16ScatterAnimation11updateStateEN18QAbstractAnimation5StateES1_@Qt_6_PRIVATE_API 6.6.1
 _ZN16ScatterAnimationC1EP16ScatterChartItemiR12QEasingCurve@Qt_6_PRIVATE_API 6.6.1
 _ZN16ScatterAnimationC2EP16ScatterChartItemiR12QEasingCurve@Qt_6_PRIVATE_API 6.6.1
 _ZN16ScatterAnimationD0Ev@Qt_6_PRIVATE_API 6.6.1
 _ZN16ScatterAnimationD1Ev@Qt_6_PRIVATE_API 6.6.1
 _ZN16ScatterAnimationD2Ev@Qt_6_PRIVATE_API 6.6.1
 _ZN16ScatterChartItem11qt_metacallEN11QMetaObject4CallEiPPv@Qt_6_PRIVATE_API 6.6.1
 _ZN16ScatterChartItem11qt_metacastEPKc@Qt_6_PRIVATE_API 6.6.1
 _ZN16ScatterChartItem12createPointsEi@Qt_6_PRIVATE_API 6.6.1
 _ZN16ScatterChartItem12deletePointsEi@Qt_6_PRIVATE_API 6.6.1
 _ZN16ScatterChartItem12resizeMarkerEP13QGraphicsItemi@Qt_6_PRIVATE_API 6.6.1
 _ZN16ScatterChartItem13markerHoveredEP13QGraphicsItemb@Qt_6_PRIVATE_API 6.6.1
 _ZN16ScatterChartItem13markerPressedEP13QGraphicsItem@Qt_6_PRIVATE_API 6.6.1
 _ZN16ScatterChartItem14hoverMoveEventEP24QGraphicsSceneHoverEvent@Qt_6_PRIVATE_API 6.6.1
 _ZN16ScatterChartItem14markerReleasedEP13QGraphicsItem@Qt_6_PRIVATE_API 6.6.1
 _ZN16ScatterChartItem14markerSelectedEP13QGraphicsItem@Qt_6_PRIVATE_API 6.6.1
 _ZN16ScatterChartItem14updateGeometryEv@Qt_6_PRIVATE_API 6.6.1
 _ZN16ScatterChartItem15mousePressEventEP24QGraphicsSceneMouseEvent@Qt_6_PRIVATE_API 6.6.1
 _ZN16ScatterChartItem16staticMetaObjectE@Qt_6_PRIVATE_API 6.6.1
 _ZN16ScatterChartItem17mouseReleaseEventEP24QGraphicsSceneMouseEvent@Qt_6_PRIVATE_API 6.6.1
 _ZN16ScatterChartItem19handleSeriesUpdatedEv@Qt_6_PRIVATE_API 6.6.1
 _ZN16ScatterChartItem19markerDoubleClickedEP13QGraphicsItem@Qt_6_PRIVATE_API 6.6.1
 _ZN16ScatterChartItem21mouseDoubleClickEventEP24QGraphicsSceneMouseEvent@Qt_6_PRIVATE_API 6.6.1
 _ZN16ScatterChartItem29handleMarkerMouseReleaseEventEP13QGraphicsItem@Qt_6_PRIVATE_API 6.6.1
 _ZN16ScatterChartItem5paintEP8QPainterPK24QStyleOptionGraphicsItemP7QWidget@Qt_6_PRIVATE_API 6.6.1
 _ZN16ScatterChartItem6setPenERK4QPen@Qt_6_PRIVATE_API 6.6.1
 _ZN16ScatterChartItem8setBrushERK6QBrush@Qt_6_PRIVATE_API 6.6.1
 _ZN16ScatterChartItemC1EP14QScatterSeriesP13QGraphicsItem@Qt_6_PRIVATE_API 6.6.1
 _ZN16ScatterChartItemC2EP14QScatterSeriesP13QGraphicsItem@Qt_6_PRIVATE_API 6.6.1
 _ZN16XLogYPolarDomain10attachAxisEP13QAbstractAxis@Qt_6_PRIVATE_API 6.6.1
 _ZN16XLogYPolarDomain10detachAxisEP13QAbstractAxis@Qt_6_PRIVATE_API 6.6.1
 _ZN16XLogYPolarDomain11qt_metacallEN11QMetaObject4CallEiPPv@Qt_6_PRIVATE_API 6.6.1
 _ZN16XLogYPolarDomain11qt_metacastEPKc@Qt_6_PRIVATE_API 6.6.1
 _ZN16XLogYPolarDomain16staticMetaObjectE@Qt_6_PRIVATE_API 6.6.1
 _ZN16XLogYPolarDomain29handleVerticalAxisBaseChangedEd@Qt_6_PRIVATE_API 6.6.1
 _ZN16XLogYPolarDomain4moveEdd@Qt_6_PRIVATE_API 6.6.1
 _ZN16XLogYPolarDomain6zoomInERK6QRectF@Qt_6_PRIVATE_API 6.6.1
 _ZN16XLogYPolarDomain7zoomOutERK6QRectF@Qt_6_PRIVATE_API 6.6.1
 _ZN16XLogYPolarDomain8setRangeEdddd@Qt_6_PRIVATE_API 6.6.1
 _ZN16XLogYPolarDomainC1EP7QObject@Qt_6_PRIVATE_API 6.6.1
 _ZN16XLogYPolarDomainC2EP7QObject@Qt_6_PRIVATE_API 6.6.1
 _ZN16XLogYPolarDomainD0Ev@Qt_6_PRIVATE_API 6.6.1
 _ZN16XLogYPolarDomainD1Ev@Qt_6_PRIVATE_API 6.6.1
 _ZN16XLogYPolarDomainD2Ev@Qt_6_PRIVATE_API 6.6.1
 _ZN17ChartThemeManager11qt_metacallEN11QMetaObject4CallEiPPv@Qt_6_PRIVATE_API 6.6.1
 _ZN17ChartThemeManager11qt_metacastEPKc@Qt_6_PRIVATE_API 6.6.1
 _ZN17ChartThemeManager12updateSeriesEP15QAbstractSeries@Qt_6_PRIVATE_API 6.6.1
 _ZN17ChartThemeManager15handleAxisAddedEP13QAbstractAxis@Qt_6_PRIVATE_API 6.6.1
 _ZN17ChartThemeManager16staticMetaObjectE@Qt_6_PRIVATE_API 6.6.1
 _ZN17ChartThemeManager17handleAxisRemovedEP13QAbstractAxis@Qt_6_PRIVATE_API 6.6.1
 _ZN17ChartThemeManager17handleSeriesAddedEP15QAbstractSeries@Qt_6_PRIVATE_API 6.6.1
 _ZN17ChartThemeManager19handleSeriesRemovedEP15QAbstractSeries@Qt_6_PRIVATE_API 6.6.1
 _ZN17ChartThemeManager23generateSeriesGradientsERK5QListI6QColorE@Qt_6_PRIVATE_API 6.6.1
 _ZN17ChartThemeManager7colorAtERK6QColorS2_d@Qt_6_PRIVATE_API 6.6.1
 _ZN17ChartThemeManager7colorAtERK9QGradientd@Qt_6_PRIVATE_API 6.6.1
 _ZN17ChartThemeManager8setThemeEN6QChart10ChartThemeE@Qt_6_PRIVATE_API 6.6.1
 _ZN17ChartThemeManagerC1EP6QChart@Qt_6_PRIVATE_API 6.6.1
 _ZN17ChartThemeManagerC2EP6QChart@Qt_6_PRIVATE_API 6.6.1
 _ZN17DateTimeAxisLabel11qt_metacallEN11QMetaObject4CallEiPPv@Qt_6_PRIVATE_API 6.6.1
 _ZN17DateTimeAxisLabel11qt_metacastEPKc@Qt_6_PRIVATE_API 6.6.1
 _ZN17DateTimeAxisLabel13finishEditingEv@Qt_6_PRIVATE_API 6.6.1
 _ZN17DateTimeAxisLabel13keyPressEventEP9QKeyEvent@Qt_6_PRIVATE_API 6.6.1
 _ZN17DateTimeAxisLabel15dateTimeChangedERK9QDateTimeS2_@Qt_6_PRIVATE_API 6.6.1
 _ZN17DateTimeAxisLabel16staticMetaObjectE@Qt_6_PRIVATE_API 6.6.1
 _ZN17DateTimeAxisLabel19setInitialEditValueEv@Qt_6_PRIVATE_API 6.6.1
 _ZN17DateTimeAxisLabel20resetBeforeEditValueEv@Qt_6_PRIVATE_API 6.6.1
 _ZN17DateTimeAxisLabel8setValueERK9QDateTime@Qt_6_PRIVATE_API 6.6.1
 _ZN17DateTimeAxisLabel9setFormatERK7QString@Qt_6_PRIVATE_API 6.6.1
 _ZN17DateTimeAxisLabelC1EP13QGraphicsItem@Qt_6_PRIVATE_API 6.6.1
 _ZN17DateTimeAxisLabelC2EP13QGraphicsItem@Qt_6_PRIVATE_API 6.6.1
 _ZN17EditableAxisLabel10sceneEventEP6QEvent@Qt_6_PRIVATE_API 6.6.1
 _ZN17EditableAxisLabel11qt_metacallEN11QMetaObject4CallEiPPv@Qt_6_PRIVATE_API 6.6.1
 _ZN17EditableAxisLabel11qt_metacastEPKc@Qt_6_PRIVATE_API 6.6.1
 _ZN17EditableAxisLabel11setEditableEb@Qt_6_PRIVATE_API 6.6.1
 _ZN17EditableAxisLabel12focusInEventEP11QFocusEvent@Qt_6_PRIVATE_API 6.6.1
 _ZN17EditableAxisLabel13focusOutEventEP11QFocusEvent@Qt_6_PRIVATE_API 6.6.1
 _ZN17EditableAxisLabel16staticMetaObjectE@Qt_6_PRIVATE_API 6.6.1
 _ZN17EditableAxisLabel20isEditEndingKeyPressEP9QKeyEvent@Qt_6_PRIVATE_API 6.6.1
 _ZN17EditableAxisLabel23reloadBeforeEditContentEv@Qt_6_PRIVATE_API 6.6.1
 _ZN17EditableAxisLabelC1EP13QGraphicsItem@Qt_6_PRIVATE_API 6.6.1
 _ZN17EditableAxisLabelC2EP13QGraphicsItem@Qt_6_PRIVATE_API 6.6.1
 _ZN17PieSliceAnimation11updateValueERK12PieSliceData@Qt_6_PRIVATE_API 6.6.1
 _ZN17PieSliceAnimation17currentSliceValueEv@Qt_6_PRIVATE_API 6.6.1
 _ZN17PieSliceAnimation18updateCurrentValueERK8QVariant@Qt_6_PRIVATE_API 6.6.1
 _ZN17PieSliceAnimation8setValueERK12PieSliceDataS2_@Qt_6_PRIVATE_API 6.6.1
 _ZN17PieSliceAnimationC1EP12PieSliceItem@Qt_6_PRIVATE_API 6.6.1
 _ZN17PieSliceAnimationC2EP12PieSliceItem@Qt_6_PRIVATE_API 6.6.1
 _ZN17PieSliceAnimationD0Ev@Qt_6_PRIVATE_API 6.6.1
 _ZN17PieSliceAnimationD1Ev@Qt_6_PRIVATE_API 6.6.1
 _ZN17PieSliceAnimationD2Ev@Qt_6_PRIVATE_API 6.6.1
 _ZN17QAreaLegendMarker11qt_metacallEN11QMetaObject4CallEiPPv@Qt_6 6.6.1
 _ZN17QAreaLegendMarker11qt_metacastEPKc@Qt_6 6.6.1
 _ZN17QAreaLegendMarker16staticMetaObjectE@Qt_6 6.6.1
 _ZN17QAreaLegendMarker6seriesEv@Qt_6 6.6.1
 _ZN17QAreaLegendMarkerC1EP11QAreaSeriesP7QLegendP7QObject@Qt_6 6.6.1
 _ZN17QAreaLegendMarkerC1ER24QAreaLegendMarkerPrivateP7QObject@Qt_6_PRIVATE_API 6.6.1
 _ZN17QAreaLegendMarkerC2EP11QAreaSeriesP7QLegendP7QObject@Qt_6 6.6.1
 _ZN17QAreaLegendMarkerC2ER24QAreaLegendMarkerPrivateP7QObject@Qt_6_PRIVATE_API 6.6.1
 _ZN17QAreaLegendMarkerD0Ev@Qt_6 6.6.1
 _ZN17QAreaLegendMarkerD1Ev@Qt_6 6.6.1
 _ZN17QAreaLegendMarkerD2Ev@Qt_6 6.6.1
 _ZN17QBarSeriesPrivate16initializeDomainEv@Qt_6_PRIVATE_API 6.6.1
 _ZN17QBarSeriesPrivate18initializeGraphicsEP13QGraphicsItem@Qt_6_PRIVATE_API 6.6.1
 _ZN17QBarSeriesPrivateC1EP10QBarSeries@Qt_6_PRIVATE_API 6.6.1
 _ZN17QBarSeriesPrivateC2EP10QBarSeries@Qt_6_PRIVATE_API 6.6.1
 _ZN17QChartViewPrivate6resizeEv@Qt_6_PRIVATE_API 6.6.1
 _ZN17QChartViewPrivate8setChartEP6QChart@Qt_6_PRIVATE_API 6.6.1
 _ZN17QChartViewPrivateC1EP10QChartViewP6QChart@Qt_6_PRIVATE_API 6.6.1
 _ZN17QChartViewPrivateC2EP10QChartViewP6QChart@Qt_6_PRIVATE_API 6.6.1
 _ZN17QChartViewPrivateD1Ev@Qt_6_PRIVATE_API 6.6.1
 _ZN17QChartViewPrivateD2Ev@Qt_6_PRIVATE_API 6.6.1
 _ZN17QColorAxisPrivate11qt_metacallEN11QMetaObject4CallEiPPv@Qt_6_PRIVATE_API 6.6.1
 _ZN17QColorAxisPrivate11qt_metacastEPKc@Qt_6_PRIVATE_API 6.6.1
 _ZN17QColorAxisPrivate12updateSeriesEv@Qt_6_PRIVATE_API 6.6.1
 _ZN17QColorAxisPrivate16initializeDomainEP14AbstractDomain@Qt_6_PRIVATE_API 6.6.1
 _ZN17QColorAxisPrivate16staticMetaObjectE@Qt_6_PRIVATE_API 6.6.1
 _ZN17QColorAxisPrivate18initializeGraphicsEP13QGraphicsItem@Qt_6_PRIVATE_API 6.6.1
 _ZN17QColorAxisPrivate6setMaxERK8QVariant@Qt_6_PRIVATE_API 6.6.1
 _ZN17QColorAxisPrivate6setMinERK8QVariant@Qt_6_PRIVATE_API 6.6.1
 _ZN17QColorAxisPrivate8setRangeERK8QVariantS2_@Qt_6_PRIVATE_API 6.6.1
 _ZN17QColorAxisPrivate8setRangeEdd@Qt_6_PRIVATE_API 6.6.1
 _ZN17QColorAxisPrivateC1EP10QColorAxis@Qt_6_PRIVATE_API 6.6.1
 _ZN17QColorAxisPrivateC2EP10QColorAxis@Qt_6_PRIVATE_API 6.6.1
 _ZN17QColorAxisPrivateD0Ev@Qt_6_PRIVATE_API 6.6.1
 _ZN17QColorAxisPrivateD1Ev@Qt_6_PRIVATE_API 6.6.1
 _ZN17QColorAxisPrivateD2Ev@Qt_6_PRIVATE_API 6.6.1
 _ZN17QPercentBarSeries11qt_metacallEN11QMetaObject4CallEiPPv@Qt_6 6.6.1
 _ZN17QPercentBarSeries11qt_metacastEPKc@Qt_6 6.6.1
 _ZN17QPercentBarSeries16staticMetaObjectE@Qt_6 6.6.1
 _ZN17QPercentBarSeriesC1EP7QObject@Qt_6 6.6.1
 _ZN17QPercentBarSeriesC2EP7QObject@Qt_6 6.6.1
 _ZN17QPercentBarSeriesD0Ev@Qt_6 6.6.1
 _ZN17QPercentBarSeriesD1Ev@Qt_6 6.6.1
 _ZN17QPercentBarSeriesD2Ev@Qt_6 6.6.1
 _ZN17QPieSeriesPrivate10fromSeriesEP10QPieSeries@Qt_6_PRIVATE_API 6.6.1
 _ZN17QPieSeriesPrivate11qt_metacallEN11QMetaObject4CallEiPPv@Qt_6_PRIVATE_API 6.6.1
 _ZN17QPieSeriesPrivate11qt_metacastEPKc@Qt_6_PRIVATE_API 6.6.1
 _ZN17QPieSeriesPrivate12sliceClickedEv@Qt_6_PRIVATE_API 6.6.1
 _ZN17QPieSeriesPrivate12sliceHoveredEb@Qt_6_PRIVATE_API 6.6.1
 _ZN17QPieSeriesPrivate12slicePressedEv@Qt_6_PRIVATE_API 6.6.1
 _ZN17QPieSeriesPrivate13sliceReleasedEv@Qt_6_PRIVATE_API 6.6.1
 _ZN17QPieSeriesPrivate14initializeAxesEv@Qt_6_PRIVATE_API 6.6.1
 _ZN17QPieSeriesPrivate14pieSizeChangedEv@Qt_6_PRIVATE_API 6.6.1
 _ZN17QPieSeriesPrivate15initializeThemeEiP10ChartThemeb@Qt_6_PRIVATE_API 6.6.1
 _ZN17QPieSeriesPrivate16initializeDomainEv@Qt_6_PRIVATE_API 6.6.1
 _ZN17QPieSeriesPrivate16staticMetaObjectE@Qt_6_PRIVATE_API 6.6.1
 _ZN17QPieSeriesPrivate17sliceValueChangedEv@Qt_6_PRIVATE_API 6.6.1
 _ZN17QPieSeriesPrivate18initializeGraphicsEP13QGraphicsItem@Qt_6_PRIVATE_API 6.6.1
 _ZN17QPieSeriesPrivate18pieEndAngleChangedEv@Qt_6_PRIVATE_API 6.6.1
 _ZN17QPieSeriesPrivate18sliceDoubleClickedEv@Qt_6_PRIVATE_API 6.6.1
 _ZN17QPieSeriesPrivate19createLegendMarkersEP7QLegend@Qt_6_PRIVATE_API 6.6.1
 _ZN17QPieSeriesPrivate20initializeAnimationsE6QFlagsIN6QChart15AnimationOptionEEiR12QEasingCurve@Qt_6_PRIVATE_API 6.6.1
 _ZN17QPieSeriesPrivate20pieStartAngleChangedEv@Qt_6_PRIVATE_API 6.6.1
 _ZN17QPieSeriesPrivate20updateDerivativeDataEv@Qt_6_PRIVATE_API 6.6.1
 _ZN17QPieSeriesPrivate21calculatedDataChangedEv@Qt_6_PRIVATE_API 6.6.1
 _ZN17QPieSeriesPrivate23verticalPositionChangedEv@Qt_6_PRIVATE_API 6.6.1
 _ZN17QPieSeriesPrivate25horizontalPositionChangedEv@Qt_6_PRIVATE_API 6.6.1
 _ZN17QPieSeriesPrivate8setSizesEdd@Qt_6_PRIVATE_API 6.6.1
 _ZN17QPieSeriesPrivateC1EP10QPieSeries@Qt_6_PRIVATE_API 6.6.1
 _ZN17QPieSeriesPrivateC2EP10QPieSeries@Qt_6_PRIVATE_API 6.6.1
 _ZN17QPieSeriesPrivateD0Ev@Qt_6_PRIVATE_API 6.6.1
 _ZN17QPieSeriesPrivateD1Ev@Qt_6_PRIVATE_API 6.6.1
 _ZN17QPieSeriesPrivateD2Ev@Qt_6_PRIVATE_API 6.6.1
 _ZN17QStackedBarSeries11qt_metacallEN11QMetaObject4CallEiPPv@Qt_6 6.6.1
 _ZN17QStackedBarSeries11qt_metacastEPKc@Qt_6 6.6.1
 _ZN17QStackedBarSeries16staticMetaObjectE@Qt_6 6.6.1
 _ZN17QStackedBarSeriesC1EP7QObject@Qt_6 6.6.1
 _ZN17QStackedBarSeriesC2EP7QObject@Qt_6 6.6.1
 _ZN17QStackedBarSeriesD0Ev@Qt_6 6.6.1
 _ZN17QStackedBarSeriesD1Ev@Qt_6 6.6.1
 _ZN17QStackedBarSeriesD2Ev@Qt_6 6.6.1
 _ZN17QValueAxisPrivate11qt_metacallEN11QMetaObject4CallEiPPv@Qt_6_PRIVATE_API 6.6.1
 _ZN17QValueAxisPrivate11qt_metacastEPKc@Qt_6_PRIVATE_API 6.6.1
 _ZN17QValueAxisPrivate16initializeDomainEP14AbstractDomain@Qt_6_PRIVATE_API 6.6.1
 _ZN17QValueAxisPrivate16staticMetaObjectE@Qt_6_PRIVATE_API 6.6.1
 _ZN17QValueAxisPrivate18initializeGraphicsEP13QGraphicsItem@Qt_6_PRIVATE_API 6.6.1
 _ZN17QValueAxisPrivate6setMaxERK8QVariant@Qt_6_PRIVATE_API 6.6.1
 _ZN17QValueAxisPrivate6setMinERK8QVariant@Qt_6_PRIVATE_API 6.6.1
 _ZN17QValueAxisPrivate8setRangeERK8QVariantS2_@Qt_6_PRIVATE_API 6.6.1
 _ZN17QValueAxisPrivate8setRangeEdd@Qt_6_PRIVATE_API 6.6.1
 _ZN17QValueAxisPrivateC1EP10QValueAxis@Qt_6_PRIVATE_API 6.6.1
 _ZN17QValueAxisPrivateC2EP10QValueAxis@Qt_6_PRIVATE_API 6.6.1
 _ZN17QValueAxisPrivateD0Ev@Qt_6_PRIVATE_API 6.6.1
 _ZN17QValueAxisPrivateD1Ev@Qt_6_PRIVATE_API 6.6.1
 _ZN17QValueAxisPrivateD2Ev@Qt_6_PRIVATE_API 6.6.1
 _ZN18CartesianChartAxis11createItemsEi@Qt_6_PRIVATE_API 6.6.1
 _ZN18CartesianChartAxis11deleteItemsEi@Qt_6_PRIVATE_API 6.6.1
 _ZN18CartesianChartAxis11qt_metacallEN11QMetaObject4CallEiPPv@Qt_6_PRIVATE_API 6.6.1
 _ZN18CartesianChartAxis11qt_metacastEPKc@Qt_6_PRIVATE_API 6.6.1
 _ZN18CartesianChartAxis11setGeometryERK6QRectFS2_@Qt_6_PRIVATE_API 6.6.1
 _ZN18CartesianChartAxis12updateLayoutERK5QListIdE@Qt_6_PRIVATE_API 6.6.1
 _ZN18CartesianChartAxis16staticMetaObjectE@Qt_6_PRIVATE_API 6.6.1
 _ZN18CartesianChartAxis18updateLabelsValuesEP10QValueAxis@Qt_6_PRIVATE_API 6.6.1
 _ZN18CartesianChartAxis20handleGridPenChangedERK4QPen@Qt_6_PRIVATE_API 6.6.1
 _ZN18CartesianChartAxis20updateMinorTickItemsEv@Qt_6_PRIVATE_API 6.6.1
 _ZN18CartesianChartAxis21handleArrowPenChangedERK4QPen@Qt_6_PRIVATE_API 6.6.1
 _ZN18CartesianChartAxis21updateLabelsDateTimesEv@Qt_6_PRIVATE_API 6.6.1
 _ZN18CartesianChartAxis22handleShadesPenChangedERK4QPen@Qt_6_PRIVATE_API 6.6.1
 _ZN18CartesianChartAxis23setDateTimeLabelsFormatERK7QString@Qt_6_PRIVATE_API 6.6.1
 _ZN18CartesianChartAxis24handleShadesBrushChangedERK6QBrush@Qt_6_PRIVATE_API 6.6.1
 _ZN18CartesianChartAxis25handleMinorGridPenChangedERK4QPen@Qt_6_PRIVATE_API 6.6.1
 _ZN18CartesianChartAxis26handleGridLineColorChangedERK6QColor@Qt_6_PRIVATE_API 6.6.1
 _ZN18CartesianChartAxis26handleMinorArrowPenChangedERK4QPen@Qt_6_PRIVATE_API 6.6.1
 _ZN18CartesianChartAxis31handleMinorGridLineColorChangedERK6QColor@Qt_6_PRIVATE_API 6.6.1
 _ZN18CartesianChartAxisC1EP13QAbstractAxisP13QGraphicsItemb@Qt_6_PRIVATE_API 6.6.1
 _ZN18CartesianChartAxisC2EP13QAbstractAxisP13QGraphicsItemb@Qt_6_PRIVATE_API 6.6.1
 _ZN18CartesianChartAxisD0Ev@Qt_6_PRIVATE_API 6.6.1
 _ZN18CartesianChartAxisD1Ev@Qt_6_PRIVATE_API 6.6.1
 _ZN18CartesianChartAxisD2Ev@Qt_6_PRIVATE_API 6.6.1
 _ZN18ChartCategoryAxisX11qt_metacallEN11QMetaObject4CallEiPPv@Qt_6_PRIVATE_API 6.6.1
 _ZN18ChartCategoryAxisX11qt_metacastEPKc@Qt_6_PRIVATE_API 6.6.1
 _ZN18ChartCategoryAxisX14updateGeometryEv@Qt_6_PRIVATE_API 6.6.1
 _ZN18ChartCategoryAxisX16staticMetaObjectE@Qt_6_PRIVATE_API 6.6.1
 _ZN18ChartCategoryAxisX23handleCategoriesChangedEv@Qt_6_PRIVATE_API 6.6.1
 _ZN18ChartCategoryAxisXC1EP13QCategoryAxisP13QGraphicsItem@Qt_6_PRIVATE_API 6.6.1
 _ZN18ChartCategoryAxisXC2EP13QCategoryAxisP13QGraphicsItem@Qt_6_PRIVATE_API 6.6.1
 _ZN18ChartCategoryAxisXD0Ev@Qt_6_PRIVATE_API 6.6.1
 _ZN18ChartCategoryAxisXD1Ev@Qt_6_PRIVATE_API 6.6.1
 _ZN18ChartCategoryAxisXD2Ev@Qt_6_PRIVATE_API 6.6.1
 _ZN18ChartCategoryAxisY11qt_metacallEN11QMetaObject4CallEiPPv@Qt_6_PRIVATE_API 6.6.1
 _ZN18ChartCategoryAxisY11qt_metacastEPKc@Qt_6_PRIVATE_API 6.6.1
 _ZN18ChartCategoryAxisY14updateGeometryEv@Qt_6_PRIVATE_API 6.6.1
 _ZN18ChartCategoryAxisY16staticMetaObjectE@Qt_6_PRIVATE_API 6.6.1
 _ZN18ChartCategoryAxisY23handleCategoriesChangedEv@Qt_6_PRIVATE_API 6.6.1
 _ZN18ChartCategoryAxisYC1EP13QCategoryAxisP13QGraphicsItem@Qt_6_PRIVATE_API 6.6.1
 _ZN18ChartCategoryAxisYC2EP13QCategoryAxisP13QGraphicsItem@Qt_6_PRIVATE_API 6.6.1
 _ZN18ChartCategoryAxisYD0Ev@Qt_6_PRIVATE_API 6.6.1
 _ZN18ChartCategoryAxisYD1Ev@Qt_6_PRIVATE_API 6.6.1
 _ZN18ChartCategoryAxisYD2Ev@Qt_6_PRIVATE_API 6.6.1
 _ZN18ChartDateTimeAxisX11qt_metacallEN11QMetaObject4CallEiPPv@Qt_6_PRIVATE_API 6.6.1
 _ZN18ChartDateTimeAxisX11qt_metacastEPKc@Qt_6_PRIVATE_API 6.6.1
 _ZN18ChartDateTimeAxisX14updateGeometryEv@Qt_6_PRIVATE_API 6.6.1
 _ZN18ChartDateTimeAxisX16staticMetaObjectE@Qt_6_PRIVATE_API 6.6.1
 _ZN18ChartDateTimeAxisX19handleFormatChangedERK7QString@Qt_6_PRIVATE_API 6.6.1
 _ZN18ChartDateTimeAxisX22handleTickCountChangedEi@Qt_6_PRIVATE_API 6.6.1
 _ZN18ChartDateTimeAxisXC1EP13QDateTimeAxisP13QGraphicsItem@Qt_6_PRIVATE_API 6.6.1
 _ZN18ChartDateTimeAxisXC2EP13QDateTimeAxisP13QGraphicsItem@Qt_6_PRIVATE_API 6.6.1
 _ZN18ChartDateTimeAxisXD0Ev@Qt_6_PRIVATE_API 6.6.1
 _ZN18ChartDateTimeAxisXD1Ev@Qt_6_PRIVATE_API 6.6.1
 _ZN18ChartDateTimeAxisXD2Ev@Qt_6_PRIVATE_API 6.6.1
 _ZN18ChartDateTimeAxisY11qt_metacallEN11QMetaObject4CallEiPPv@Qt_6_PRIVATE_API 6.6.1
 _ZN18ChartDateTimeAxisY11qt_metacastEPKc@Qt_6_PRIVATE_API 6.6.1
 _ZN18ChartDateTimeAxisY14updateGeometryEv@Qt_6_PRIVATE_API 6.6.1
 _ZN18ChartDateTimeAxisY16staticMetaObjectE@Qt_6_PRIVATE_API 6.6.1
 _ZN18ChartDateTimeAxisY19handleFormatChangedERK7QString@Qt_6_PRIVATE_API 6.6.1
 _ZN18ChartDateTimeAxisY22handleTickCountChangedEi@Qt_6_PRIVATE_API 6.6.1
 _ZN18ChartDateTimeAxisYC1EP13QDateTimeAxisP13QGraphicsItem@Qt_6_PRIVATE_API 6.6.1
 _ZN18ChartDateTimeAxisYC2EP13QDateTimeAxisP13QGraphicsItem@Qt_6_PRIVATE_API 6.6.1
 _ZN18ChartDateTimeAxisYD0Ev@Qt_6_PRIVATE_API 6.6.1
 _ZN18ChartDateTimeAxisYD1Ev@Qt_6_PRIVATE_API 6.6.1
 _ZN18ChartDateTimeAxisYD2Ev@Qt_6_PRIVATE_API 6.6.1
 _ZN18ChartLogValueAxisX11qt_metacallEN11QMetaObject4CallEiPPv@Qt_6_PRIVATE_API 6.6.1
 _ZN18ChartLogValueAxisX11qt_metacastEPKc@Qt_6_PRIVATE_API 6.6.1
 _ZN18ChartLogValueAxisX14updateGeometryEv@Qt_6_PRIVATE_API 6.6.1
 _ZN18ChartLogValueAxisX16staticMetaObjectE@Qt_6_PRIVATE_API 6.6.1
 _ZN18ChartLogValueAxisX17handleBaseChangedEd@Qt_6_PRIVATE_API 6.6.1
 _ZN18ChartLogValueAxisX24handleLabelFormatChangedERK7QString@Qt_6_PRIVATE_API 6.6.1
 _ZN18ChartLogValueAxisXC1EP13QLogValueAxisP13QGraphicsItem@Qt_6_PRIVATE_API 6.6.1
 _ZN18ChartLogValueAxisXC2EP13QLogValueAxisP13QGraphicsItem@Qt_6_PRIVATE_API 6.6.1
 _ZN18ChartLogValueAxisXD0Ev@Qt_6_PRIVATE_API 6.6.1
 _ZN18ChartLogValueAxisXD1Ev@Qt_6_PRIVATE_API 6.6.1
 _ZN18ChartLogValueAxisXD2Ev@Qt_6_PRIVATE_API 6.6.1
 _ZN18ChartLogValueAxisY11qt_metacallEN11QMetaObject4CallEiPPv@Qt_6_PRIVATE_API 6.6.1
 _ZN18ChartLogValueAxisY11qt_metacastEPKc@Qt_6_PRIVATE_API 6.6.1
 _ZN18ChartLogValueAxisY14updateGeometryEv@Qt_6_PRIVATE_API 6.6.1
 _ZN18ChartLogValueAxisY16staticMetaObjectE@Qt_6_PRIVATE_API 6.6.1
 _ZN18ChartLogValueAxisY17handleBaseChangedEd@Qt_6_PRIVATE_API 6.6.1
 _ZN18ChartLogValueAxisY24handleLabelFormatChangedERK7QString@Qt_6_PRIVATE_API 6.6.1
 _ZN18ChartLogValueAxisYC1EP13QLogValueAxisP13QGraphicsItem@Qt_6_PRIVATE_API 6.6.1
 _ZN18ChartLogValueAxisYC2EP13QLogValueAxisP13QGraphicsItem@Qt_6_PRIVATE_API 6.6.1
 _ZN18ChartLogValueAxisYD0Ev@Qt_6_PRIVATE_API 6.6.1
 _ZN18ChartLogValueAxisYD1Ev@Qt_6_PRIVATE_API 6.6.1
 _ZN18ChartLogValueAxisYD2Ev@Qt_6_PRIVATE_API 6.6.1
 _ZN18QAbstractBarSeries11qt_metacallEN11QMetaObject4CallEiPPv@Qt_6 6.6.1
 _ZN18QAbstractBarSeries11qt_metacastEPKc@Qt_6 6.6.1
 _ZN18QAbstractBarSeries11setBarWidthEd@Qt_6 6.6.1
 _ZN18QAbstractBarSeries12barsetsAddedERK5QListIP7QBarSetE@Qt_6 6.6.1
 _ZN18QAbstractBarSeries12countChangedEv@Qt_6 6.6.1
 _ZN18QAbstractBarSeries13doubleClickedEiP7QBarSet@Qt_6 6.6.1
 _ZN18QAbstractBarSeries14barsetsRemovedERK5QListIP7QBarSetE@Qt_6 6.6.1
 _ZN18QAbstractBarSeries14setLabelsAngleEd@Qt_6 6.6.1
 _ZN18QAbstractBarSeries15setLabelsFormatERK7QString@Qt_6 6.6.1
 _ZN18QAbstractBarSeries16setLabelsVisibleEb@Qt_6 6.6.1
 _ZN18QAbstractBarSeries16staticMetaObjectE@Qt_6 6.6.1
 _ZN18QAbstractBarSeries17setLabelsPositionENS_14LabelsPositionE@Qt_6 6.6.1
 _ZN18QAbstractBarSeries18labelsAngleChangedEd@Qt_6 6.6.1
 _ZN18QAbstractBarSeries18setLabelsPrecisionEi@Qt_6 6.6.1
 _ZN18QAbstractBarSeries19labelsFormatChangedERK7QString@Qt_6 6.6.1
 _ZN18QAbstractBarSeries20labelsVisibleChangedEv@Qt_6 6.6.1
 _ZN18QAbstractBarSeries21labelsPositionChangedENS_14LabelsPositionE@Qt_6 6.6.1
 _ZN18QAbstractBarSeries22labelsPrecisionChangedEi@Qt_6 6.6.1
 _ZN18QAbstractBarSeries4takeEP7QBarSet@Qt_6 6.6.1
 _ZN18QAbstractBarSeries5clearEv@Qt_6 6.6.1
 _ZN18QAbstractBarSeries6appendEP7QBarSet@Qt_6 6.6.1
 _ZN18QAbstractBarSeries6appendERK5QListIP7QBarSetE@Qt_6 6.6.1
 _ZN18QAbstractBarSeries6insertEiP7QBarSet@Qt_6 6.6.1
 _ZN18QAbstractBarSeries6removeEP7QBarSet@Qt_6 6.6.1
 _ZN18QAbstractBarSeries7clickedEiP7QBarSet@Qt_6 6.6.1
 _ZN18QAbstractBarSeries7hoveredEbiP7QBarSet@Qt_6 6.6.1
 _ZN18QAbstractBarSeries7pressedEiP7QBarSet@Qt_6 6.6.1
 _ZN18QAbstractBarSeries8releasedEiP7QBarSet@Qt_6 6.6.1
 _ZN18QAbstractBarSeriesC1ER25QAbstractBarSeriesPrivateP7QObject@Qt_6_PRIVATE_API 6.6.1
 _ZN18QAbstractBarSeriesC2ER25QAbstractBarSeriesPrivateP7QObject@Qt_6_PRIVATE_API 6.6.1
 _ZN18QAbstractBarSeriesD0Ev@Qt_6 6.6.1
 _ZN18QAbstractBarSeriesD1Ev@Qt_6 6.6.1
 _ZN18QAbstractBarSeriesD2Ev@Qt_6 6.6.1
 _ZN18QAreaSeriesPrivate11qt_metacallEN11QMetaObject4CallEiPPv@Qt_6_PRIVATE_API 6.6.1
 _ZN18QAreaSeriesPrivate11qt_metacastEPKc@Qt_6_PRIVATE_API 6.6.1
 _ZN18QAreaSeriesPrivate14initializeAxesEv@Qt_6_PRIVATE_API 6.6.1
 _ZN18QAreaSeriesPrivate15initializeThemeEiP10ChartThemeb@Qt_6_PRIVATE_API 6.6.1
 _ZN18QAreaSeriesPrivate16initializeDomainEv@Qt_6_PRIVATE_API 6.6.1
 _ZN18QAreaSeriesPrivate16staticMetaObjectE@Qt_6_PRIVATE_API 6.6.1
 _ZN18QAreaSeriesPrivate18initializeGraphicsEP13QGraphicsItem@Qt_6_PRIVATE_API 6.6.1
 _ZN18QAreaSeriesPrivate19createLegendMarkersEP7QLegend@Qt_6_PRIVATE_API 6.6.1
 _ZN18QAreaSeriesPrivate20initializeAnimationsE6QFlagsIN6QChart15AnimationOptionEEiR12QEasingCurve@Qt_6_PRIVATE_API 6.6.1
 _ZN18QAreaSeriesPrivate7updatedEv@Qt_6_PRIVATE_API 6.6.1
 _ZN18QAreaSeriesPrivateC1EP11QLineSeriesS1_P11QAreaSeries@Qt_6_PRIVATE_API 6.6.1
 _ZN18QAreaSeriesPrivateC2EP11QLineSeriesS1_P11QAreaSeries@Qt_6_PRIVATE_API 6.6.1
 _ZN18QCandlestickSeries10penChangedEv@Qt_6 6.6.1
 _ZN18QCandlestickSeries11qt_metacallEN11QMetaObject4CallEiPPv@Qt_6 6.6.1
 _ZN18QCandlestickSeries11qt_metacastEPKc@Qt_6 6.6.1
 _ZN18QCandlestickSeries12brushChangedEv@Qt_6 6.6.1
 _ZN18QCandlestickSeries12countChangedEv@Qt_6 6.6.1
 _ZN18QCandlestickSeries12setBodyWidthEd@Qt_6 6.6.1
 _ZN18QCandlestickSeries12setCapsWidthEd@Qt_6 6.6.1
 _ZN18QCandlestickSeries13doubleClickedEP15QCandlestickSet@Qt_6 6.6.1
 _ZN18QCandlestickSeries14setCapsVisibleEb@Qt_6 6.6.1
 _ZN18QCandlestickSeries16bodyWidthChangedEv@Qt_6 6.6.1
 _ZN18QCandlestickSeries16capsWidthChangedEv@Qt_6 6.6.1
 _ZN18QCandlestickSeries16staticMetaObjectE@Qt_6 6.6.1
 _ZN18QCandlestickSeries18setDecreasingColorERK6QColor@Qt_6 6.6.1
 _ZN18QCandlestickSeries18setIncreasingColorERK6QColor@Qt_6 6.6.1
 _ZN18QCandlestickSeries20candlestickSetsAddedERK5QListIP15QCandlestickSetE@Qt_6 6.6.1
 _ZN18QCandlestickSeries21capsVisibilityChangedEv@Qt_6 6.6.1
 _ZN18QCandlestickSeries21setBodyOutlineVisibleEb@Qt_6 6.6.1
 _ZN18QCandlestickSeries21setMaximumColumnWidthEd@Qt_6 6.6.1
 _ZN18QCandlestickSeries21setMinimumColumnWidthEd@Qt_6 6.6.1
 _ZN18QCandlestickSeries22candlestickSetsRemovedERK5QListIP15QCandlestickSetE@Qt_6 6.6.1
 _ZN18QCandlestickSeries22decreasingColorChangedEv@Qt_6 6.6.1
 _ZN18QCandlestickSeries22increasingColorChangedEv@Qt_6 6.6.1
 _ZN18QCandlestickSeries25maximumColumnWidthChangedEv@Qt_6 6.6.1
 _ZN18QCandlestickSeries25minimumColumnWidthChangedEv@Qt_6 6.6.1
 _ZN18QCandlestickSeries28bodyOutlineVisibilityChangedEv@Qt_6 6.6.1
 _ZN18QCandlestickSeries4takeEP15QCandlestickSet@Qt_6 6.6.1
 _ZN18QCandlestickSeries5clearEv@Qt_6 6.6.1
 _ZN18QCandlestickSeries6appendEP15QCandlestickSet@Qt_6 6.6.1
 _ZN18QCandlestickSeries6appendERK5QListIP15QCandlestickSetE@Qt_6 6.6.1
 _ZN18QCandlestickSeries6insertEiP15QCandlestickSet@Qt_6 6.6.1
 _ZN18QCandlestickSeries6removeEP15QCandlestickSet@Qt_6 6.6.1
 _ZN18QCandlestickSeries6removeERK5QListIP15QCandlestickSetE@Qt_6 6.6.1
 _ZN18QCandlestickSeries6setPenERK4QPen@Qt_6 6.6.1
 _ZN18QCandlestickSeries7clickedEP15QCandlestickSet@Qt_6 6.6.1
 _ZN18QCandlestickSeries7hoveredEbP15QCandlestickSet@Qt_6 6.6.1
 _ZN18QCandlestickSeries7pressedEP15QCandlestickSet@Qt_6 6.6.1
 _ZN18QCandlestickSeries8releasedEP15QCandlestickSet@Qt_6 6.6.1
 _ZN18QCandlestickSeries8setBrushERK6QBrush@Qt_6 6.6.1
 _ZN18QCandlestickSeriesC1EP7QObject@Qt_6 6.6.1
 _ZN18QCandlestickSeriesC2EP7QObject@Qt_6 6.6.1
 _ZN18QCandlestickSeriesD0Ev@Qt_6 6.6.1
 _ZN18QCandlestickSeriesD1Ev@Qt_6 6.6.1
 _ZN18QCandlestickSeriesD2Ev@Qt_6 6.6.1
 _ZN18QLineSeriesPrivate15initializeThemeEiP10ChartThemeb@Qt_6_PRIVATE_API 6.6.1
 _ZN18QLineSeriesPrivate18initializeGraphicsEP13QGraphicsItem@Qt_6_PRIVATE_API 6.6.1
 _ZN18QLineSeriesPrivateC1EP11QLineSeries@Qt_6_PRIVATE_API 6.6.1
 _ZN18QLineSeriesPrivateC2EP11QLineSeries@Qt_6_PRIVATE_API 6.6.1
 _ZN19AbstractChartLayout10setMarginsERK8QMargins@Qt_6_PRIVATE_API 6.6.1
 _ZN19AbstractChartLayout11setGeometryERK6QRectF@Qt_6_PRIVATE_API 6.6.1
 _ZN19AbstractChartLayoutC1EP14ChartPresenter@Qt_6_PRIVATE_API 6.6.1
 _ZN19AbstractChartLayoutC2EP14ChartPresenter@Qt_6_PRIVATE_API 6.6.1
 _ZN19AbstractChartLayoutD0Ev@Qt_6_PRIVATE_API 6.6.1
 _ZN19AbstractChartLayoutD1Ev@Qt_6_PRIVATE_API 6.6.1
 _ZN19AbstractChartLayoutD2Ev@Qt_6_PRIVATE_API 6.6.1
 _ZN19LogXLogYPolarDomain10attachAxisEP13QAbstractAxis@Qt_6_PRIVATE_API 6.6.1
 _ZN19LogXLogYPolarDomain10detachAxisEP13QAbstractAxis@Qt_6_PRIVATE_API 6.6.1
 _ZN19LogXLogYPolarDomain11qt_metacallEN11QMetaObject4CallEiPPv@Qt_6_PRIVATE_API 6.6.1
 _ZN19LogXLogYPolarDomain11qt_metacastEPKc@Qt_6_PRIVATE_API 6.6.1
 _ZN19LogXLogYPolarDomain16staticMetaObjectE@Qt_6_PRIVATE_API 6.6.1
 _ZN19LogXLogYPolarDomain29handleVerticalAxisBaseChangedEd@Qt_6_PRIVATE_API 6.6.1
 _ZN19LogXLogYPolarDomain31handleHorizontalAxisBaseChangedEd@Qt_6_PRIVATE_API 6.6.1
 _ZN19LogXLogYPolarDomain4moveEdd@Qt_6_PRIVATE_API 6.6.1
 _ZN19LogXLogYPolarDomain6zoomInERK6QRectF@Qt_6_PRIVATE_API 6.6.1
 _ZN19LogXLogYPolarDomain7zoomOutERK6QRectF@Qt_6_PRIVATE_API 6.6.1
 _ZN19LogXLogYPolarDomain8setRangeEdddd@Qt_6_PRIVATE_API 6.6.1
 _ZN19LogXLogYPolarDomainC1EP7QObject@Qt_6_PRIVATE_API 6.6.1
 _ZN19LogXLogYPolarDomainC2EP7QObject@Qt_6_PRIVATE_API 6.6.1
 _ZN19LogXLogYPolarDomainD0Ev@Qt_6_PRIVATE_API 6.6.1
 _ZN19LogXLogYPolarDomainD1Ev@Qt_6_PRIVATE_API 6.6.1
 _ZN19LogXLogYPolarDomainD2Ev@Qt_6_PRIVATE_API 6.6.1
 _ZN19PercentBarChartItem11qt_metacallEN11QMetaObject4CallEiPPv@Qt_6_PRIVATE_API 6.6.1
 _ZN19PercentBarChartItem11qt_metacastEPKc@Qt_6_PRIVATE_API 6.6.1
 _ZN19PercentBarChartItem12topLeftPointEidd@Qt_6_PRIVATE_API 6.6.1
 _ZN19PercentBarChartItem14positionLabelsEv@Qt_6_PRIVATE_API 6.6.1
 _ZN19PercentBarChartItem15calculateLayoutEv@Qt_6_PRIVATE_API 6.6.1
 _ZN19PercentBarChartItem15markLabelsDirtyEP7QBarSetii@Qt_6_PRIVATE_API 6.6.1
 _ZN19PercentBarChartItem16bottomRightPointEidd@Qt_6_PRIVATE_API 6.6.1
 _ZN19PercentBarChartItem16initializeLayoutEiiib@Qt_6_PRIVATE_API 6.6.1
 _ZN19PercentBarChartItem16staticMetaObjectE@Qt_6_PRIVATE_API 6.6.1
 _ZN19PercentBarChartItem17generateLabelTextEiid@Qt_6_PRIVATE_API 6.6.1
 _ZN19PercentBarChartItem27handleLabelsPositionChangedEv@Qt_6_PRIVATE_API 6.6.1
 _ZN19PercentBarChartItemC1EP18QAbstractBarSeriesP13QGraphicsItem@Qt_6_PRIVATE_API 6.6.1
 _ZN19PercentBarChartItemC2EP18QAbstractBarSeriesP13QGraphicsItem@Qt_6_PRIVATE_API 6.6.1
 _ZN19QBoxPlotModelMapper11qt_metacallEN11QMetaObject4CallEiPPv@Qt_6 6.6.1
 _ZN19QBoxPlotModelMapper11qt_metacastEPKc@Qt_6 6.6.1
 _ZN19QBoxPlotModelMapper14setOrientationEN2Qt11OrientationE@Qt_6 6.6.1
 _ZN19QBoxPlotModelMapper16staticMetaObjectE@Qt_6 6.6.1
 _ZN19QBoxPlotModelMapper20setLastBoxSetSectionEi@Qt_6 6.6.1
 _ZN19QBoxPlotModelMapper21setFirstBoxSetSectionEi@Qt_6 6.6.1
 _ZN19QBoxPlotModelMapper8setCountEi@Qt_6 6.6.1
 _ZN19QBoxPlotModelMapper8setFirstEi@Qt_6 6.6.1
 _ZN19QBoxPlotModelMapper8setModelEP18QAbstractItemModel@Qt_6 6.6.1
 _ZN19QBoxPlotModelMapper9setSeriesEP14QBoxPlotSeries@Qt_6 6.6.1
 _ZN19QBoxPlotModelMapperC1EP7QObject@Qt_6 6.6.1
 _ZN19QBoxPlotModelMapperC2EP7QObject@Qt_6 6.6.1
 _ZN19StackedBarChartItem11qt_metacallEN11QMetaObject4CallEiPPv@Qt_6_PRIVATE_API 6.6.1
 _ZN19StackedBarChartItem11qt_metacastEPKc@Qt_6_PRIVATE_API 6.6.1
 _ZN19StackedBarChartItem12topLeftPointEidd@Qt_6_PRIVATE_API 6.6.1
 _ZN19StackedBarChartItem14positionLabelsEv@Qt_6_PRIVATE_API 6.6.1
 _ZN19StackedBarChartItem15calculateLayoutEv@Qt_6_PRIVATE_API 6.6.1
 _ZN19StackedBarChartItem16bottomRightPointEidd@Qt_6_PRIVATE_API 6.6.1
 _ZN19StackedBarChartItem16initializeLayoutEiiib@Qt_6_PRIVATE_API 6.6.1
 _ZN19StackedBarChartItem16staticMetaObjectE@Qt_6_PRIVATE_API 6.6.1
 _ZN19StackedBarChartItem27handleLabelsPositionChangedEv@Qt_6_PRIVATE_API 6.6.1
 _ZN19StackedBarChartItemC1EP18QAbstractBarSeriesP13QGraphicsItem@Qt_6_PRIVATE_API 6.6.1
 _ZN19StackedBarChartItemC2EP18QAbstractBarSeriesP13QGraphicsItem@Qt_6_PRIVATE_API 6.6.1
 _ZN20AbstractBarChartItem11applyLayoutERK5QListI6QRectFE@Qt_6_PRIVATE_API 6.6.1
 _ZN20AbstractBarChartItem11qt_metacallEN11QMetaObject4CallEiPPv@Qt_6_PRIVATE_API 6.6.1
 _ZN20AbstractBarChartItem11qt_metacastEPKc@Qt_6_PRIVATE_API 6.6.1
 _ZN20AbstractBarChartItem12setAnimationEP12BarAnimation@Qt_6_PRIVATE_API 6.6.1
 _ZN20AbstractBarChartItem14positionLabelsEv@Qt_6_PRIVATE_API 6.6.1
 _ZN20AbstractBarChartItem14resetAnimationEv@Qt_6_PRIVATE_API 6.6.1
 _ZN20AbstractBarChartItem14updateBarItemsEv@Qt_6_PRIVATE_API 6.6.1
 _ZN20AbstractBarChartItem15markLabelsDirtyEP7QBarSetii@Qt_6_PRIVATE_API 6.6.1
 _ZN20AbstractBarChartItem16createLabelItemsEv@Qt_6_PRIVATE_API 6.6.1
 _ZN20AbstractBarChartItem16staticMetaObjectE@Qt_6_PRIVATE_API 6.6.1
 _ZN20AbstractBarChartItem17generateLabelTextEiid@Qt_6_PRIVATE_API 6.6.1
 _ZN20AbstractBarChartItem17handleBarValueAddEiiP7QBarSet@Qt_6_PRIVATE_API 6.6.1
 _ZN20AbstractBarChartItem17handleSeriesAddedEP15QAbstractSeries@Qt_6_PRIVATE_API 6.6.1
 _ZN20AbstractBarChartItem17handleUpdatedBarsEv@Qt_6_PRIVATE_API 6.6.1
 _ZN20AbstractBarChartItem19handleDomainUpdatedEv@Qt_6_PRIVATE_API 6.6.1
 _ZN20AbstractBarChartItem19handleLayoutChangedEv@Qt_6_PRIVATE_API 6.6.1
 _ZN20AbstractBarChartItem19handleSeriesRemovedEP15QAbstractSeries@Qt_6_PRIVATE_API 6.6.1
 _ZN20AbstractBarChartItem20handleBarValueChangeEiP7QBarSet@Qt_6_PRIVATE_API 6.6.1
 _ZN20AbstractBarChartItem20handleBarValueRemoveEiiP7QBarSet@Qt_6_PRIVATE_API 6.6.1
 _ZN20AbstractBarChartItem20handleOpacityChangedEv@Qt_6_PRIVATE_API 6.6.1
 _ZN20AbstractBarChartItem20handleVisibleChangedEv@Qt_6_PRIVATE_API 6.6.1
 _ZN20AbstractBarChartItem20initializeFullLayoutEv@Qt_6_PRIVATE_API 6.6.1
 _ZN20AbstractBarChartItem22positionLabelsVerticalEv@Qt_6_PRIVATE_API 6.6.1
 _ZN20AbstractBarChartItem24handleSetStructureChangeEv@Qt_6_PRIVATE_API 6.6.1
 _ZN20AbstractBarChartItem26handleDataStructureChangedEv@Qt_6_PRIVATE_API 6.6.1
 _ZN20AbstractBarChartItem26handleLabelsVisibleChangedEb@Qt_6_PRIVATE_API 6.6.1
 _ZN20AbstractBarChartItem27handleLabelsPositionChangedEv@Qt_6_PRIVATE_API 6.6.1
 _ZN20AbstractBarChartItem41calculateSeriesPositionAdjustmentAndWidthEv@Qt_6_PRIVATE_API 6.6.1
 _ZN20AbstractBarChartItem5paintEP8QPainterPK24QStyleOptionGraphicsItemP7QWidget@Qt_6_PRIVATE_API 6.6.1
 _ZN20AbstractBarChartItem9setLayoutERK5QListI6QRectFE@Qt_6_PRIVATE_API 6.6.1
 _ZN20AbstractBarChartItemC1EP18QAbstractBarSeriesP13QGraphicsItem@Qt_6_PRIVATE_API 6.6.1
 _ZN20AbstractBarChartItemC2EP18QAbstractBarSeriesP13QGraphicsItem@Qt_6_PRIVATE_API 6.6.1
 _ZN20AbstractBarChartItemD0Ev@Qt_6_PRIVATE_API 6.6.1
 _ZN20AbstractBarChartItemD1Ev@Qt_6_PRIVATE_API 6.6.1
 _ZN20AbstractBarChartItemD2Ev@Qt_6_PRIVATE_API 6.6.1
 _ZN20BoxWhiskersAnimation10setEndDataERK15BoxWhiskersData@Qt_6_PRIVATE_API 6.6.1
 _ZN20BoxWhiskersAnimation11qt_metacallEN11QMetaObject4CallEiPPv@Qt_6_PRIVATE_API 6.6.1
 _ZN20BoxWhiskersAnimation11qt_metacastEPKc@Qt_6_PRIVATE_API 6.6.1
 _ZN20BoxWhiskersAnimation12setStartDataERK15BoxWhiskersData@Qt_6_PRIVATE_API 6.6.1
 _ZN20BoxWhiskersAnimation16staticMetaObjectE@Qt_6_PRIVATE_API 6.6.1
 _ZN20BoxWhiskersAnimation18updateCurrentValueERK8QVariant@Qt_6_PRIVATE_API 6.6.1
 _ZN20BoxWhiskersAnimation5setupERK15BoxWhiskersDataS2_@Qt_6_PRIVATE_API 6.6.1
 _ZN20BoxWhiskersAnimationC1EP11BoxWhiskersP16BoxPlotAnimationiR12QEasingCurve@Qt_6_PRIVATE_API 6.6.1
 _ZN20BoxWhiskersAnimationC2EP11BoxWhiskersP16BoxPlotAnimationiR12QEasingCurve@Qt_6_PRIVATE_API 6.6.1
 _ZN20BoxWhiskersAnimationD0Ev@Qt_6_PRIVATE_API 6.6.1
 _ZN20BoxWhiskersAnimationD1Ev@Qt_6_PRIVATE_API 6.6.1
 _ZN20BoxWhiskersAnimationD2Ev@Qt_6_PRIVATE_API 6.6.1
 _ZN20CandlestickAnimation11qt_metacallEN11QMetaObject4CallEiPPv@Qt_6_PRIVATE_API 6.6.1
 _ZN20CandlestickAnimation11qt_metacastEPKc@Qt_6_PRIVATE_API 6.6.1
 _ZN20CandlestickAnimation14addCandlestickEP11Candlestick@Qt_6_PRIVATE_API 6.6.1
 _ZN20CandlestickAnimation16staticMetaObjectE@Qt_6_PRIVATE_API 6.6.1
 _ZN20CandlestickAnimation17setAnimationStartEP11Candlestick@Qt_6_PRIVATE_API 6.6.1
 _ZN20CandlestickAnimation20candlestickAnimationEP11Candlestick@Qt_6_PRIVATE_API 6.6.1
 _ZN20CandlestickAnimation26candlestickChangeAnimationEP11Candlestick@Qt_6_PRIVATE_API 6.6.1
 _ZN20CandlestickAnimation26removeCandlestickAnimationEP11Candlestick@Qt_6_PRIVATE_API 6.6.1
 _ZN20CandlestickAnimation7stopAllEv@Qt_6_PRIVATE_API 6.6.1
 _ZN20CandlestickAnimationC1EP20CandlestickChartItemiR12QEasingCurve@Qt_6_PRIVATE_API 6.6.1
 _ZN20CandlestickAnimationC2EP20CandlestickChartItemiR12QEasingCurve@Qt_6_PRIVATE_API 6.6.1
 _ZN20CandlestickAnimationD0Ev@Qt_6_PRIVATE_API 6.6.1
 _ZN20CandlestickAnimationD1Ev@Qt_6_PRIVATE_API 6.6.1
 _ZN20CandlestickAnimationD2Ev@Qt_6_PRIVATE_API 6.6.1
 _ZN20CandlestickChartItem11qt_metacallEN11QMetaObject4CallEiPPv@Qt_6_PRIVATE_API 6.6.1
 _ZN20CandlestickChartItem11qt_metacastEPKc@Qt_6_PRIVATE_API 6.6.1
 _ZN20CandlestickChartItem12addTimestampEd@Qt_6_PRIVATE_API 6.6.1
 _ZN20CandlestickChartItem12setAnimationEP20CandlestickAnimation@Qt_6_PRIVATE_API 6.6.1
 _ZN20CandlestickChartItem15removeTimestampEd@Qt_6_PRIVATE_API 6.6.1
 _ZN20CandlestickChartItem16staticMetaObjectE@Qt_6_PRIVATE_API 6.6.1
 _ZN20CandlestickChartItem16updateTimePeriodEv@Qt_6_PRIVATE_API 6.6.1
 _ZN20CandlestickChartItem19handleDomainUpdatedEv@Qt_6_PRIVATE_API 6.6.1
 _ZN20CandlestickChartItem19handleLayoutUpdatedEv@Qt_6_PRIVATE_API 6.6.1
 _ZN20CandlestickChartItem24handleCandlestickSetsAddERK5QListIP15QCandlestickSetE@Qt_6_PRIVATE_API 6.6.1
 _ZN20CandlestickChartItem25handleCandlesticksUpdatedEv@Qt_6_PRIVATE_API 6.6.1
 _ZN20CandlestickChartItem25updateCandlestickGeometryEP11Candlesticki@Qt_6_PRIVATE_API 6.6.1
 _ZN20CandlestickChartItem26handleDataStructureChangedEv@Qt_6_PRIVATE_API 6.6.1
 _ZN20CandlestickChartItem27handleCandlestickSetsRemoveERK5QListIP15QCandlestickSetE@Qt_6_PRIVATE_API 6.6.1
 _ZN20CandlestickChartItem27updateCandlestickAppearanceEP11CandlestickP15QCandlestickSet@Qt_6_PRIVATE_API 6.6.1
 _ZN20CandlestickChartItem29handleCandlestickSeriesChangeEv@Qt_6_PRIVATE_API 6.6.1
 _ZN20CandlestickChartItem5paintEP8QPainterPK24QStyleOptionGraphicsItemP7QWidget@Qt_6_PRIVATE_API 6.6.1
 _ZN20CandlestickChartItemC1EP18QCandlestickSeriesP13QGraphicsItem@Qt_6_PRIVATE_API 6.6.1
 _ZN20CandlestickChartItemC2EP18QCandlestickSeriesP13QGraphicsItem@Qt_6_PRIVATE_API 6.6.1
 _ZN20CandlestickChartItemD0Ev@Qt_6_PRIVATE_API 6.6.1
 _ZN20CandlestickChartItemD1Ev@Qt_6_PRIVATE_API 6.6.1
 _ZN20CandlestickChartItemD2Ev@Qt_6_PRIVATE_API 6.6.1
 _ZN20CartesianChartLayoutC1EP14ChartPresenter@Qt_6_PRIVATE_API 6.6.1
 _ZN20CartesianChartLayoutC2EP14ChartPresenter@Qt_6_PRIVATE_API 6.6.1
 _ZN20CartesianChartLayoutD0Ev@Qt_6_PRIVATE_API 6.6.1
 _ZN20CartesianChartLayoutD1Ev@Qt_6_PRIVATE_API 6.6.1
 _ZN20CartesianChartLayoutD2Ev@Qt_6_PRIVATE_API 6.6.1
 _ZN20PolarChartAxisRadial11createItemsEi@Qt_6_PRIVATE_API 6.6.1
 _ZN20PolarChartAxisRadial11qt_metacallEN11QMetaObject4CallEiPPv@Qt_6_PRIVATE_API 6.6.1
 _ZN20PolarChartAxisRadial11qt_metacastEPKc@Qt_6_PRIVATE_API 6.6.1
 _ZN20PolarChartAxisRadial14updateGeometryEv@Qt_6_PRIVATE_API 6.6.1
 _ZN20PolarChartAxisRadial16staticMetaObjectE@Qt_6_PRIVATE_API 6.6.1
 _ZN20PolarChartAxisRadial19preferredAxisRadiusERK6QSizeF@Qt_6_PRIVATE_API 6.6.1
 _ZN20PolarChartAxisRadial20handleGridPenChangedERK4QPen@Qt_6_PRIVATE_API 6.6.1
 _ZN20PolarChartAxisRadial20updateMinorTickItemsEv@Qt_6_PRIVATE_API 6.6.1
 _ZN20PolarChartAxisRadial21handleArrowPenChangedERK4QPen@Qt_6_PRIVATE_API 6.6.1
 _ZN20PolarChartAxisRadial23updateMinorTickGeometryEv@Qt_6_PRIVATE_API 6.6.1
 _ZN20PolarChartAxisRadial25handleMinorGridPenChangedERK4QPen@Qt_6_PRIVATE_API 6.6.1
 _ZN20PolarChartAxisRadial26handleGridLineColorChangedERK6QColor@Qt_6_PRIVATE_API 6.6.1
 _ZN20PolarChartAxisRadial26handleMinorArrowPenChangedERK4QPen@Qt_6_PRIVATE_API 6.6.1
 _ZN20PolarChartAxisRadial31handleMinorGridLineColorChangedERK6QColor@Qt_6_PRIVATE_API 6.6.1
 _ZN20PolarChartAxisRadialC1EP13QAbstractAxisP13QGraphicsItemb@Qt_6_PRIVATE_API 6.6.1
 _ZN20PolarChartAxisRadialC2EP13QAbstractAxisP13QGraphicsItemb@Qt_6_PRIVATE_API 6.6.1
 _ZN20PolarChartAxisRadialD0Ev@Qt_6_PRIVATE_API 6.6.1
 _ZN20PolarChartAxisRadialD1Ev@Qt_6_PRIVATE_API 6.6.1
 _ZN20PolarChartAxisRadialD2Ev@Qt_6_PRIVATE_API 6.6.1
 _ZN20QAbstractAxisPrivate11qt_metacallEN11QMetaObject4CallEiPPv@Qt_6_PRIVATE_API 6.6.1
 _ZN20QAbstractAxisPrivate11qt_metacastEPKc@Qt_6_PRIVATE_API 6.6.1
 _ZN20QAbstractAxisPrivate12rangeChangedEdd@Qt_6_PRIVATE_API 6.6.1
 _ZN20QAbstractAxisPrivate12setAlignmentE6QFlagsIN2Qt13AlignmentFlagEE@Qt_6_PRIVATE_API 6.6.1
 _ZN20QAbstractAxisPrivate15initializeThemeEP10ChartThemeb@Qt_6_PRIVATE_API 6.6.1
 _ZN20QAbstractAxisPrivate16staticMetaObjectE@Qt_6_PRIVATE_API 6.6.1
 _ZN20QAbstractAxisPrivate18handleRangeChangedEdd@Qt_6_PRIVATE_API 6.6.1
 _ZN20QAbstractAxisPrivate18initializeGraphicsEP13QGraphicsItem@Qt_6_PRIVATE_API 6.6.1
 _ZN20QAbstractAxisPrivate18setLabelsTruncatedEb@Qt_6_PRIVATE_API 6.6.1
 _ZN20QAbstractAxisPrivate20initializeAnimationsE6QFlagsIN6QChart15AnimationOptionEEiR12QEasingCurve@Qt_6_PRIVATE_API 6.6.1
 _ZN20QAbstractAxisPrivateC1EP13QAbstractAxis@Qt_6_PRIVATE_API 6.6.1
 _ZN20QAbstractAxisPrivateC2EP13QAbstractAxis@Qt_6_PRIVATE_API 6.6.1
 _ZN20QAbstractAxisPrivateD0Ev@Qt_6_PRIVATE_API 6.6.1
 _ZN20QAbstractAxisPrivateD1Ev@Qt_6_PRIVATE_API 6.6.1
 _ZN20QAbstractAxisPrivateD2Ev@Qt_6_PRIVATE_API 6.6.1
 _ZN20QBoxPlotLegendMarker11qt_metacallEN11QMetaObject4CallEiPPv@Qt_6 6.6.1
 _ZN20QBoxPlotLegendMarker11qt_metacastEPKc@Qt_6 6.6.1
 _ZN20QBoxPlotLegendMarker16staticMetaObjectE@Qt_6 6.6.1
 _ZN20QBoxPlotLegendMarker6seriesEv@Qt_6 6.6.1
 _ZN20QBoxPlotLegendMarkerC1EP14QBoxPlotSeriesP7QLegendP7QObject@Qt_6 6.6.1
 _ZN20QBoxPlotLegendMarkerC1ER27QBoxPlotLegendMarkerPrivateP7QObject@Qt_6_PRIVATE_API 6.6.1
 _ZN20QBoxPlotLegendMarkerC2EP14QBoxPlotSeriesP7QLegendP7QObject@Qt_6 6.6.1
 _ZN20QBoxPlotLegendMarkerC2ER27QBoxPlotLegendMarkerPrivateP7QObject@Qt_6_PRIVATE_API 6.6.1
 _ZN20QBoxPlotLegendMarkerD0Ev@Qt_6 6.6.1
 _ZN20QBoxPlotLegendMarkerD1Ev@Qt_6 6.6.1
 _ZN20QBoxPlotLegendMarkerD2Ev@Qt_6 6.6.1
 _ZN20QCategoryAxisPrivate11qt_metacallEN11QMetaObject4CallEiPPv@Qt_6_PRIVATE_API 6.6.1
 _ZN20QCategoryAxisPrivate11qt_metacastEPKc@Qt_6_PRIVATE_API 6.6.1
 _ZN20QCategoryAxisPrivate16staticMetaObjectE@Qt_6_PRIVATE_API 6.6.1
 _ZN20QCategoryAxisPrivate18initializeGraphicsEP13QGraphicsItem@Qt_6_PRIVATE_API 6.6.1
 _ZN20QCategoryAxisPrivateC1EP13QCategoryAxis@Qt_6_PRIVATE_API 6.6.1
 _ZN20QCategoryAxisPrivateC2EP13QCategoryAxis@Qt_6_PRIVATE_API 6.6.1
 _ZN20QCategoryAxisPrivateD0Ev@Qt_6_PRIVATE_API 6.6.1
 _ZN20QCategoryAxisPrivateD1Ev@Qt_6_PRIVATE_API 6.6.1
 _ZN20QCategoryAxisPrivateD2Ev@Qt_6_PRIVATE_API 6.6.1
 _ZN20QDateTimeAxisPrivate11qt_metacallEN11QMetaObject4CallEiPPv@Qt_6_PRIVATE_API 6.6.1
 _ZN20QDateTimeAxisPrivate11qt_metacastEPKc@Qt_6_PRIVATE_API 6.6.1
 _ZN20QDateTimeAxisPrivate16initializeDomainEP14AbstractDomain@Qt_6_PRIVATE_API 6.6.1
 _ZN20QDateTimeAxisPrivate16staticMetaObjectE@Qt_6_PRIVATE_API 6.6.1
 _ZN20QDateTimeAxisPrivate18initializeGraphicsEP13QGraphicsItem@Qt_6_PRIVATE_API 6.6.1
 _ZN20QDateTimeAxisPrivate6setMaxERK8QVariant@Qt_6_PRIVATE_API 6.6.1
 _ZN20QDateTimeAxisPrivate6setMinERK8QVariant@Qt_6_PRIVATE_API 6.6.1
 _ZN20QDateTimeAxisPrivate8setRangeERK8QVariantS2_@Qt_6_PRIVATE_API 6.6.1
 _ZN20QDateTimeAxisPrivate8setRangeEdd@Qt_6_PRIVATE_API 6.6.1
 _ZN20QDateTimeAxisPrivateC1EP13QDateTimeAxis@Qt_6_PRIVATE_API 6.6.1
 _ZN20QDateTimeAxisPrivateC2EP13QDateTimeAxis@Qt_6_PRIVATE_API 6.6.1
 _ZN20QDateTimeAxisPrivateD0Ev@Qt_6_PRIVATE_API 6.6.1
 _ZN20QDateTimeAxisPrivateD1Ev@Qt_6_PRIVATE_API 6.6.1
 _ZN20QDateTimeAxisPrivateD2Ev@Qt_6_PRIVATE_API 6.6.1
 _ZN20QHBoxPlotModelMapper11qt_metacallEN11QMetaObject4CallEiPPv@Qt_6 6.6.1
 _ZN20QHBoxPlotModelMapper11qt_metacastEPKc@Qt_6 6.6.1
 _ZN20QHBoxPlotModelMapper13modelReplacedEv@Qt_6 6.6.1
 _ZN20QHBoxPlotModelMapper14seriesReplacedEv@Qt_6 6.6.1
 _ZN20QHBoxPlotModelMapper14setColumnCountEi@Qt_6 6.6.1
 _ZN20QHBoxPlotModelMapper14setFirstColumnEi@Qt_6 6.6.1
 _ZN20QHBoxPlotModelMapper16setLastBoxSetRowEi@Qt_6 6.6.1
 _ZN20QHBoxPlotModelMapper16staticMetaObjectE@Qt_6 6.6.1
 _ZN20QHBoxPlotModelMapper17setFirstBoxSetRowEi@Qt_6 6.6.1
 _ZN20QHBoxPlotModelMapper18columnCountChangedEv@Qt_6 6.6.1
 _ZN20QHBoxPlotModelMapper18firstColumnChangedEv@Qt_6 6.6.1
 _ZN20QHBoxPlotModelMapper20lastBoxSetRowChangedEv@Qt_6 6.6.1
 _ZN20QHBoxPlotModelMapper21firstBoxSetRowChangedEv@Qt_6 6.6.1
 _ZN20QHBoxPlotModelMapper8setModelEP18QAbstractItemModel@Qt_6 6.6.1
 _ZN20QHBoxPlotModelMapper9setSeriesEP14QBoxPlotSeries@Qt_6 6.6.1
 _ZN20QHBoxPlotModelMapperC1EP7QObject@Qt_6 6.6.1
 _ZN20QHBoxPlotModelMapperC2EP7QObject@Qt_6 6.6.1
 _ZN20QHorizontalBarSeries11qt_metacallEN11QMetaObject4CallEiPPv@Qt_6 6.6.1
 _ZN20QHorizontalBarSeries11qt_metacastEPKc@Qt_6 6.6.1
 _ZN20QHorizontalBarSeries16staticMetaObjectE@Qt_6 6.6.1
 _ZN20QHorizontalBarSeriesC1EP7QObject@Qt_6 6.6.1
 _ZN20QHorizontalBarSeriesC2EP7QObject@Qt_6 6.6.1
 _ZN20QHorizontalBarSeriesD0Ev@Qt_6 6.6.1
 _ZN20QHorizontalBarSeriesD1Ev@Qt_6 6.6.1
 _ZN20QHorizontalBarSeriesD2Ev@Qt_6 6.6.1
 _ZN20QLegendMarkerPrivate11qt_metacallEN11QMetaObject4CallEiPPv@Qt_6_PRIVATE_API 6.6.1
 _ZN20QLegendMarkerPrivate11qt_metacastEPKc@Qt_6_PRIVATE_API 6.6.1
 _ZN20QLegendMarkerPrivate16invalidateLegendEv@Qt_6_PRIVATE_API 6.6.1
 _ZN20QLegendMarkerPrivate16staticMetaObjectE@Qt_6_PRIVATE_API 6.6.1
 _ZN20QLegendMarkerPrivate17handleShapeChangeEv@Qt_6_PRIVATE_API 6.6.1
 _ZN20QLegendMarkerPrivate18invalidateAllItemsEv@Qt_6_PRIVATE_API 6.6.1
 _ZN20QLegendMarkerPrivateC1EP13QLegendMarkerP7QLegend@Qt_6_PRIVATE_API 6.6.1
 _ZN20QLegendMarkerPrivateC2EP13QLegendMarkerP7QLegend@Qt_6_PRIVATE_API 6.6.1
 _ZN20QLegendMarkerPrivateD0Ev@Qt_6_PRIVATE_API 6.6.1
 _ZN20QLegendMarkerPrivateD1Ev@Qt_6_PRIVATE_API 6.6.1
 _ZN20QLegendMarkerPrivateD2Ev@Qt_6_PRIVATE_API 6.6.1
 _ZN20QLogValueAxisPrivate11qt_metacallEN11QMetaObject4CallEiPPv@Qt_6_PRIVATE_API 6.6.1
 _ZN20QLogValueAxisPrivate11qt_metacastEPKc@Qt_6_PRIVATE_API 6.6.1
 _ZN20QLogValueAxisPrivate15updateTickCountEv@Qt_6_PRIVATE_API 6.6.1
 _ZN20QLogValueAxisPrivate16initializeDomainEP14AbstractDomain@Qt_6_PRIVATE_API 6.6.1
 _ZN20QLogValueAxisPrivate16staticMetaObjectE@Qt_6_PRIVATE_API 6.6.1
 _ZN20QLogValueAxisPrivate18initializeGraphicsEP13QGraphicsItem@Qt_6_PRIVATE_API 6.6.1
 _ZN20QLogValueAxisPrivate6setMaxERK8QVariant@Qt_6_PRIVATE_API 6.6.1
 _ZN20QLogValueAxisPrivate6setMinERK8QVariant@Qt_6_PRIVATE_API 6.6.1
 _ZN20QLogValueAxisPrivate8setRangeERK8QVariantS2_@Qt_6_PRIVATE_API 6.6.1
 _ZN20QLogValueAxisPrivate8setRangeEdd@Qt_6_PRIVATE_API 6.6.1
 _ZN20QLogValueAxisPrivateC1EP13QLogValueAxis@Qt_6_PRIVATE_API 6.6.1
 _ZN20QLogValueAxisPrivateC2EP13QLogValueAxis@Qt_6_PRIVATE_API 6.6.1
 _ZN20QLogValueAxisPrivateD0Ev@Qt_6_PRIVATE_API 6.6.1
 _ZN20QLogValueAxisPrivateD1Ev@Qt_6_PRIVATE_API 6.6.1
 _ZN20QLogValueAxisPrivateD2Ev@Qt_6_PRIVATE_API 6.6.1
 _ZN20QSplineSeriesPrivate11qt_metacallEN11QMetaObject4CallEiPPv@Qt_6_PRIVATE_API 6.6.1
 _ZN20QSplineSeriesPrivate11qt_metacastEPKc@Qt_6_PRIVATE_API 6.6.1
 _ZN20QSplineSeriesPrivate15initializeThemeEiP10ChartThemeb@Qt_6_PRIVATE_API 6.6.1
 _ZN20QSplineSeriesPrivate16staticMetaObjectE@Qt_6_PRIVATE_API 6.6.1
 _ZN20QSplineSeriesPrivate18initializeGraphicsEP13QGraphicsItem@Qt_6_PRIVATE_API 6.6.1
 _ZN20QSplineSeriesPrivate20initializeAnimationsE6QFlagsIN6QChart15AnimationOptionEEiR12QEasingCurve@Qt_6_PRIVATE_API 6.6.1
 _ZN20QSplineSeriesPrivateC1EP13QSplineSeries@Qt_6_PRIVATE_API 6.6.1
 _ZN20QSplineSeriesPrivateC2EP13QSplineSeries@Qt_6_PRIVATE_API 6.6.1
 _ZN20QVBoxPlotModelMapper11qt_metacallEN11QMetaObject4CallEiPPv@Qt_6 6.6.1
 _ZN20QVBoxPlotModelMapper11qt_metacastEPKc@Qt_6 6.6.1
 _ZN20QVBoxPlotModelMapper11setFirstRowEi@Qt_6 6.6.1
 _ZN20QVBoxPlotModelMapper11setRowCountEi@Qt_6 6.6.1
 _ZN20QVBoxPlotModelMapper13modelReplacedEv@Qt_6 6.6.1
 _ZN20QVBoxPlotModelMapper14seriesReplacedEv@Qt_6 6.6.1
 _ZN20QVBoxPlotModelMapper15firstRowChangedEv@Qt_6 6.6.1
 _ZN20QVBoxPlotModelMapper15rowCountChangedEv@Qt_6 6.6.1
 _ZN20QVBoxPlotModelMapper16staticMetaObjectE@Qt_6 6.6.1
 _ZN20QVBoxPlotModelMapper19setLastBoxSetColumnEi@Qt_6 6.6.1
 _ZN20QVBoxPlotModelMapper20setFirstBoxSetColumnEi@Qt_6 6.6.1
 _ZN20QVBoxPlotModelMapper23lastBoxSetColumnChangedEv@Qt_6 6.6.1
 _ZN20QVBoxPlotModelMapper24firstBoxSetColumnChangedEv@Qt_6 6.6.1
 _ZN20QVBoxPlotModelMapper8setModelEP18QAbstractItemModel@Qt_6 6.6.1
 _ZN20QVBoxPlotModelMapper9setSeriesEP14QBoxPlotSeries@Qt_6 6.6.1
 _ZN20QVBoxPlotModelMapperC1EP7QObject@Qt_6 6.6.1
 _ZN20QVBoxPlotModelMapperC2EP7QObject@Qt_6 6.6.1
 _ZN21ChartBarCategoryAxisX11qt_metacallEN11QMetaObject4CallEiPPv@Qt_6_PRIVATE_API 6.6.1
 _ZN21ChartBarCategoryAxisX11qt_metacastEPKc@Qt_6_PRIVATE_API 6.6.1
 _ZN21ChartBarCategoryAxisX14updateGeometryEv@Qt_6_PRIVATE_API 6.6.1
 _ZN21ChartBarCategoryAxisX16staticMetaObjectE@Qt_6_PRIVATE_API 6.6.1
 _ZN21ChartBarCategoryAxisX23handleCategoriesChangedEv@Qt_6_PRIVATE_API 6.6.1
 _ZN21ChartBarCategoryAxisXC1EP16QBarCategoryAxisP13QGraphicsItem@Qt_6_PRIVATE_API 6.6.1
 _ZN21ChartBarCategoryAxisXC2EP16QBarCategoryAxisP13QGraphicsItem@Qt_6_PRIVATE_API 6.6.1
 _ZN21ChartBarCategoryAxisXD0Ev@Qt_6_PRIVATE_API 6.6.1
 _ZN21ChartBarCategoryAxisXD1Ev@Qt_6_PRIVATE_API 6.6.1
 _ZN21ChartBarCategoryAxisXD2Ev@Qt_6_PRIVATE_API 6.6.1
 _ZN21ChartBarCategoryAxisY11qt_metacallEN11QMetaObject4CallEiPPv@Qt_6_PRIVATE_API 6.6.1
 _ZN21ChartBarCategoryAxisY11qt_metacastEPKc@Qt_6_PRIVATE_API 6.6.1
 _ZN21ChartBarCategoryAxisY14updateGeometryEv@Qt_6_PRIVATE_API 6.6.1
 _ZN21ChartBarCategoryAxisY16staticMetaObjectE@Qt_6_PRIVATE_API 6.6.1
 _ZN21ChartBarCategoryAxisY23handleCategoriesChangedEv@Qt_6_PRIVATE_API 6.6.1
 _ZN21ChartBarCategoryAxisYC1EP16QBarCategoryAxisP13QGraphicsItem@Qt_6_PRIVATE_API 6.6.1
 _ZN21ChartBarCategoryAxisYC2EP16QBarCategoryAxisP13QGraphicsItem@Qt_6_PRIVATE_API 6.6.1
 _ZN21ChartBarCategoryAxisYD0Ev@Qt_6_PRIVATE_API 6.6.1
 _ZN21ChartBarCategoryAxisYD1Ev@Qt_6_PRIVATE_API 6.6.1
 _ZN21ChartBarCategoryAxisYD2Ev@Qt_6_PRIVATE_API 6.6.1
 _ZN21GLXYSeriesDataManager11qt_metacallEN11QMetaObject4CallEiPPv@Qt_6_PRIVATE_API 6.6.1
 _ZN21GLXYSeriesDataManager11qt_metacastEPKc@Qt_6_PRIVATE_API 6.6.1
 _ZN21GLXYSeriesDataManager12removeSeriesEPK9QXYSeries@Qt_6_PRIVATE_API 6.6.1
 _ZN21GLXYSeriesDataManager13seriesRemovedEPK9QXYSeries@Qt_6_PRIVATE_API 6.6.1
 _ZN21GLXYSeriesDataManager16staticMetaObjectE@Qt_6_PRIVATE_API 6.6.1
 _ZN21GLXYSeriesDataManager21handleSeriesPenChangeEv@Qt_6_PRIVATE_API 6.6.1
 _ZN21GLXYSeriesDataManager24handleAxisReverseChangedERK5QListIP15QAbstractSeriesE@Qt_6_PRIVATE_API 6.6.1
 _ZN21GLXYSeriesDataManager24handleScatterColorChangeEv@Qt_6_PRIVATE_API 6.6.1
 _ZN21GLXYSeriesDataManager24handleSeriesOpenGLChangeEv@Qt_6_PRIVATE_API 6.6.1
 _ZN21GLXYSeriesDataManager28handleSeriesVisibilityChangeEv@Qt_6_PRIVATE_API 6.6.1
 _ZN21GLXYSeriesDataManager29handleScatterMarkerSizeChangeEv@Qt_6_PRIVATE_API 6.6.1
 _ZN21GLXYSeriesDataManager7cleanupEv@Qt_6_PRIVATE_API 6.6.1
 _ZN21GLXYSeriesDataManager9setPointsEP9QXYSeriesPK14AbstractDomain@Qt_6_PRIVATE_API 6.6.1
 _ZN21GLXYSeriesDataManagerC1EP7QObject@Qt_6_PRIVATE_API 6.6.1
 _ZN21GLXYSeriesDataManagerC2EP7QObject@Qt_6_PRIVATE_API 6.6.1
 _ZN21GLXYSeriesDataManagerD0Ev@Qt_6_PRIVATE_API 6.6.1
 _ZN21GLXYSeriesDataManagerD1Ev@Qt_6_PRIVATE_API 6.6.1
 _ZN21GLXYSeriesDataManagerD2Ev@Qt_6_PRIVATE_API 6.6.1
 _ZN21PolarChartAxisAngular11createItemsEi@Qt_6_PRIVATE_API 6.6.1
 _ZN21PolarChartAxisAngular11qt_metacallEN11QMetaObject4CallEiPPv@Qt_6_PRIVATE_API 6.6.1
 _ZN21PolarChartAxisAngular11qt_metacastEPKc@Qt_6_PRIVATE_API 6.6.1
 _ZN21PolarChartAxisAngular14updateGeometryEv@Qt_6_PRIVATE_API 6.6.1
 _ZN21PolarChartAxisAngular16staticMetaObjectE@Qt_6_PRIVATE_API 6.6.1
 _ZN21PolarChartAxisAngular19preferredAxisRadiusERK6QSizeF@Qt_6_PRIVATE_API 6.6.1
 _ZN21PolarChartAxisAngular20handleGridPenChangedERK4QPen@Qt_6_PRIVATE_API 6.6.1
 _ZN21PolarChartAxisAngular20updateMinorTickItemsEv@Qt_6_PRIVATE_API 6.6.1
 _ZN21PolarChartAxisAngular21handleArrowPenChangedERK4QPen@Qt_6_PRIVATE_API 6.6.1
 _ZN21PolarChartAxisAngular23updateMinorTickGeometryEv@Qt_6_PRIVATE_API 6.6.1
 _ZN21PolarChartAxisAngular25handleMinorGridPenChangedERK4QPen@Qt_6_PRIVATE_API 6.6.1
 _ZN21PolarChartAxisAngular26handleGridLineColorChangedERK6QColor@Qt_6_PRIVATE_API 6.6.1
 _ZN21PolarChartAxisAngular26handleMinorArrowPenChangedERK4QPen@Qt_6_PRIVATE_API 6.6.1
 _ZN21PolarChartAxisAngular31handleMinorGridLineColorChangedERK6QColor@Qt_6_PRIVATE_API 6.6.1
 _ZN21PolarChartAxisAngularC1EP13QAbstractAxisP13QGraphicsItemb@Qt_6_PRIVATE_API 6.6.1
 _ZN21PolarChartAxisAngularC2EP13QAbstractAxisP13QGraphicsItemb@Qt_6_PRIVATE_API 6.6.1
 _ZN21PolarChartAxisAngularD0Ev@Qt_6_PRIVATE_API 6.6.1
 _ZN21PolarChartAxisAngularD1Ev@Qt_6_PRIVATE_API 6.6.1
 _ZN21PolarChartAxisAngularD2Ev@Qt_6_PRIVATE_API 6.6.1
 _ZN21QBoxPlotSeriesPrivate11qt_metacallEN11QMetaObject4CallEiPPv@Qt_6_PRIVATE_API 6.6.1
 _ZN21QBoxPlotSeriesPrivate11qt_metacastEPKc@Qt_6_PRIVATE_API 6.6.1
 _ZN21QBoxPlotSeriesPrivate12updatedBoxesEv@Qt_6_PRIVATE_API 6.6.1
 _ZN21QBoxPlotSeriesPrivate13doubleClickedEiP7QBoxSet@Qt_6_PRIVATE_API 6.6.1
 _ZN21QBoxPlotSeriesPrivate13updatedLayoutEv@Qt_6_PRIVATE_API 6.6.1
 _ZN21QBoxPlotSeriesPrivate14initializeAxesEv@Qt_6_PRIVATE_API 6.6.1
 _ZN21QBoxPlotSeriesPrivate15initializeThemeEiP10ChartThemeb@Qt_6_PRIVATE_API 6.6.1
 _ZN21QBoxPlotSeriesPrivate16initializeDomainEv@Qt_6_PRIVATE_API 6.6.1
 _ZN21QBoxPlotSeriesPrivate16staticMetaObjectE@Qt_6_PRIVATE_API 6.6.1
 _ZN21QBoxPlotSeriesPrivate17restructuredBoxesEv@Qt_6_PRIVATE_API 6.6.1
 _ZN21QBoxPlotSeriesPrivate18handleSeriesChangeEP15QAbstractSeries@Qt_6_PRIVATE_API 6.6.1
 _ZN21QBoxPlotSeriesPrivate18handleSeriesRemoveEP15QAbstractSeries@Qt_6_PRIVATE_API 6.6.1
 _ZN21QBoxPlotSeriesPrivate18initializeGraphicsEP13QGraphicsItem@Qt_6_PRIVATE_API 6.6.1
 _ZN21QBoxPlotSeriesPrivate18populateCategoriesEP16QBarCategoryAxis@Qt_6_PRIVATE_API 6.6.1
 _ZN21QBoxPlotSeriesPrivate19createLegendMarkersEP7QLegend@Qt_6_PRIVATE_API 6.6.1
 _ZN21QBoxPlotSeriesPrivate20initializeAnimationsE6QFlagsIN6QChart15AnimationOptionEEiR12QEasingCurve@Qt_6_PRIVATE_API 6.6.1
 _ZN21QBoxPlotSeriesPrivate3maxEv@Qt_6_PRIVATE_API 6.6.1
 _ZN21QBoxPlotSeriesPrivate3minEv@Qt_6_PRIVATE_API 6.6.1
 _ZN21QBoxPlotSeriesPrivate6appendEP7QBoxSet@Qt_6_PRIVATE_API 6.6.1
 _ZN21QBoxPlotSeriesPrivate6appendERK5QListIP7QBoxSetE@Qt_6_PRIVATE_API 6.6.1
 _ZN21QBoxPlotSeriesPrivate6insertEiP7QBoxSet@Qt_6_PRIVATE_API 6.6.1
 _ZN21QBoxPlotSeriesPrivate6removeEP7QBoxSet@Qt_6_PRIVATE_API 6.6.1
 _ZN21QBoxPlotSeriesPrivate6removeERK5QListIP7QBoxSetE@Qt_6_PRIVATE_API 6.6.1
 _ZN21QBoxPlotSeriesPrivate7clickedEiP7QBoxSet@Qt_6_PRIVATE_API 6.6.1
 _ZN21QBoxPlotSeriesPrivate7pressedEiP7QBoxSet@Qt_6_PRIVATE_API 6.6.1
 _ZN21QBoxPlotSeriesPrivate7updatedEv@Qt_6_PRIVATE_API 6.6.1
 _ZN21QBoxPlotSeriesPrivate8boxSetAtEi@Qt_6_PRIVATE_API 6.6.1
 _ZN21QBoxPlotSeriesPrivate8releasedEiP7QBoxSet@Qt_6_PRIVATE_API 6.6.1
 _ZN21QBoxPlotSeriesPrivateC1EP14QBoxPlotSeries@Qt_6_PRIVATE_API 6.6.1
 _ZN21QBoxPlotSeriesPrivateC2EP14QBoxPlotSeries@Qt_6_PRIVATE_API 6.6.1
 _ZN21QBoxPlotSeriesPrivateD0Ev@Qt_6_PRIVATE_API 6.6.1
 _ZN21QBoxPlotSeriesPrivateD1Ev@Qt_6_PRIVATE_API 6.6.1
 _ZN21QBoxPlotSeriesPrivateD2Ev@Qt_6_PRIVATE_API 6.6.1
 _ZN21QScatterSeriesPrivate15initializeThemeEiP10ChartThemeb@Qt_6_PRIVATE_API 6.6.1
 _ZN21QScatterSeriesPrivate18initializeGraphicsEP13QGraphicsItem@Qt_6_PRIVATE_API 6.6.1
 _ZN21QScatterSeriesPrivate20initializeAnimationsE6QFlagsIN6QChart15AnimationOptionEEiR12QEasingCurve@Qt_6_PRIVATE_API 6.6.1
 _ZN21QScatterSeriesPrivateC1EP14QScatterSeries@Qt_6_PRIVATE_API 6.6.1
 _ZN21QScatterSeriesPrivateC2EP14QScatterSeries@Qt_6_PRIVATE_API 6.6.1
 _ZN21QXYModelMapperPrivate10insertDataEii@Qt_6_PRIVATE_API 6.6.1
 _ZN21QXYModelMapperPrivate10removeDataEii@Qt_6_PRIVATE_API 6.6.1
 _ZN21QXYModelMapperPrivate11qt_metacallEN11QMetaObject4CallEiPPv@Qt_6_PRIVATE_API 6.6.1
 _ZN21QXYModelMapperPrivate11qt_metacastEPKc@Qt_6_PRIVATE_API 6.6.1
 _ZN21QXYModelMapperPrivate11xModelIndexEi@Qt_6_PRIVATE_API 6.6.1
 _ZN21QXYModelMapperPrivate11yModelIndexEi@Qt_6_PRIVATE_API 6.6.1
 _ZN21QXYModelMapperPrivate12modelUpdatedE11QModelIndexS0_@Qt_6_PRIVATE_API 6.6.1
 _ZN21QXYModelMapperPrivate14modelRowsAddedE11QModelIndexii@Qt_6_PRIVATE_API 6.6.1
 _ZN21QXYModelMapperPrivate14valueFromModelE11QModelIndex@Qt_6_PRIVATE_API 6.6.1
 _ZN21QXYModelMapperPrivate15setValueToModelE11QModelIndexd@Qt_6_PRIVATE_API 6.6.1
 _ZN21QXYModelMapperPrivate16handlePointAddedEi@Qt_6_PRIVATE_API 6.6.1
 _ZN21QXYModelMapperPrivate16modelRowsRemovedE11QModelIndexii@Qt_6_PRIVATE_API 6.6.1
 _ZN21QXYModelMapperPrivate16staticMetaObjectE@Qt_6_PRIVATE_API 6.6.1
 _ZN21QXYModelMapperPrivate17blockModelSignalsEb@Qt_6_PRIVATE_API 6.6.1
 _ZN21QXYModelMapperPrivate17modelColumnsAddedE11QModelIndexii@Qt_6_PRIVATE_API 6.6.1
 _ZN21QXYModelMapperPrivate18blockSeriesSignalsEb@Qt_6_PRIVATE_API 6.6.1
 _ZN21QXYModelMapperPrivate18handlePointRemovedEi@Qt_6_PRIVATE_API 6.6.1
 _ZN21QXYModelMapperPrivate19handlePointReplacedEi@Qt_6_PRIVATE_API 6.6.1
 _ZN21QXYModelMapperPrivate19handlePointsRemovedEii@Qt_6_PRIVATE_API 6.6.1
 _ZN21QXYModelMapperPrivate19modelColumnsRemovedE11QModelIndexii@Qt_6_PRIVATE_API 6.6.1
 _ZN21QXYModelMapperPrivate20handleModelDestroyedEv@Qt_6_PRIVATE_API 6.6.1
 _ZN21QXYModelMapperPrivate21handleSeriesDestroyedEv@Qt_6_PRIVATE_API 6.6.1
 _ZN21QXYModelMapperPrivate21initializeXYFromModelEv@Qt_6_PRIVATE_API 6.6.1
 _ZN21QXYModelMapperPrivateC1EP14QXYModelMapper@Qt_6_PRIVATE_API 6.6.1
 _ZN21QXYModelMapperPrivateC2EP14QXYModelMapper@Qt_6_PRIVATE_API 6.6.1
 _ZN22HorizontalBarChartItem11qt_metacallEN11QMetaObject4CallEiPPv@Qt_6_PRIVATE_API 6.6.1
 _ZN22HorizontalBarChartItem11qt_metacastEPKc@Qt_6_PRIVATE_API 6.6.1
 _ZN22HorizontalBarChartItem12topLeftPointEiiidd@Qt_6_PRIVATE_API 6.6.1
 _ZN22HorizontalBarChartItem15calculateLayoutEv@Qt_6_PRIVATE_API 6.6.1
 _ZN22HorizontalBarChartItem16bottomRightPointEiiidd@Qt_6_PRIVATE_API 6.6.1
 _ZN22HorizontalBarChartItem16initializeLayoutEiiib@Qt_6_PRIVATE_API 6.6.1
 _ZN22HorizontalBarChartItem16staticMetaObjectE@Qt_6_PRIVATE_API 6.6.1
 _ZN22HorizontalBarChartItemC1EP18QAbstractBarSeriesP13QGraphicsItem@Qt_6_PRIVATE_API 6.6.1
 _ZN22HorizontalBarChartItemC2EP18QAbstractBarSeriesP13QGraphicsItem@Qt_6_PRIVATE_API 6.6.1
 _ZN22QAbstractSeriesPrivate11qt_metacallEN11QMetaObject4CallEiPPv@Qt_6_PRIVATE_API 6.6.1
 _ZN22QAbstractSeriesPrivate11qt_metacastEPKc@Qt_6_PRIVATE_API 6.6.1
 _ZN22QAbstractSeriesPrivate12countChangedEv@Qt_6_PRIVATE_API 6.6.1
 _ZN22QAbstractSeriesPrivate12setPresenterEP14ChartPresenter@Qt_6_PRIVATE_API 6.6.1
 _ZN22QAbstractSeriesPrivate14setBlockOpenGLEb@Qt_6_PRIVATE_API 6.6.1
 _ZN22QAbstractSeriesPrivate16staticMetaObjectE@Qt_6_PRIVATE_API 6.6.1
 _ZN22QAbstractSeriesPrivate18initializeGraphicsEP13QGraphicsItem@Qt_6_PRIVATE_API 6.6.1
 _ZN22QAbstractSeriesPrivate20initializeAnimationsE6QFlagsIN6QChart15AnimationOptionEEiR12QEasingCurve@Qt_6_PRIVATE_API 6.6.1
 _ZN22QAbstractSeriesPrivate9setDomainEP14AbstractDomain@Qt_6_PRIVATE_API 6.6.1
 _ZN22QAbstractSeriesPrivateC1EP15QAbstractSeries@Qt_6_PRIVATE_API 6.6.1
 _ZN22QAbstractSeriesPrivateC2EP15QAbstractSeries@Qt_6_PRIVATE_API 6.6.1
 _ZN22QAbstractSeriesPrivateD0Ev@Qt_6_PRIVATE_API 6.6.1
 _ZN22QAbstractSeriesPrivateD1Ev@Qt_6_PRIVATE_API 6.6.1
 _ZN22QAbstractSeriesPrivateD2Ev@Qt_6_PRIVATE_API 6.6.1
 _ZN22QBarModelMapperPrivate10insertDataEii@Qt_6_PRIVATE_API 6.6.1
 _ZN22QBarModelMapperPrivate10removeDataEii@Qt_6_PRIVATE_API 6.6.1
 _ZN22QBarModelMapperPrivate11qt_metacallEN11QMetaObject4CallEiPPv@Qt_6_PRIVATE_API 6.6.1
 _ZN22QBarModelMapperPrivate11qt_metacastEPKc@Qt_6_PRIVATE_API 6.6.1
 _ZN22QBarModelMapperPrivate11valuesAddedEii@Qt_6_PRIVATE_API 6.6.1
 _ZN22QBarModelMapperPrivate12barSetsAddedERK5QListIP7QBarSetE@Qt_6_PRIVATE_API 6.6.1
 _ZN22QBarModelMapperPrivate12modelUpdatedE11QModelIndexS0_@Qt_6_PRIVATE_API 6.6.1
 _ZN22QBarModelMapperPrivate13barModelIndexEii@Qt_6_PRIVATE_API 6.6.1
 _ZN22QBarModelMapperPrivate13valuesRemovedEii@Qt_6_PRIVATE_API 6.6.1
 _ZN22QBarModelMapperPrivate14barSetsRemovedERK5QListIP7QBarSetE@Qt_6_PRIVATE_API 6.6.1
 _ZN22QBarModelMapperPrivate14modelRowsAddedE11QModelIndexii@Qt_6_PRIVATE_API 6.6.1
 _ZN22QBarModelMapperPrivate15barLabelChangedEv@Qt_6_PRIVATE_API 6.6.1
 _ZN22QBarModelMapperPrivate15barValueChangedEi@Qt_6_PRIVATE_API 6.6.1
 _ZN22QBarModelMapperPrivate16modelRowsRemovedE11QModelIndexii@Qt_6_PRIVATE_API 6.6.1
 _ZN22QBarModelMapperPrivate16staticMetaObjectE@Qt_6_PRIVATE_API 6.6.1
 _ZN22QBarModelMapperPrivate17blockModelSignalsEb@Qt_6_PRIVATE_API 6.6.1
 _ZN22QBarModelMapperPrivate17modelColumnsAddedE11QModelIndexii@Qt_6_PRIVATE_API 6.6.1
 _ZN22QBarModelMapperPrivate18blockSeriesSignalsEb@Qt_6_PRIVATE_API 6.6.1
 _ZN22QBarModelMapperPrivate19modelColumnsRemovedE11QModelIndexii@Qt_6_PRIVATE_API 6.6.1
 _ZN22QBarModelMapperPrivate20handleModelDestroyedEv@Qt_6_PRIVATE_API 6.6.1
 _ZN22QBarModelMapperPrivate21handleSeriesDestroyedEv@Qt_6_PRIVATE_API 6.6.1
 _ZN22QBarModelMapperPrivate22initializeBarFromModelEv@Qt_6_PRIVATE_API 6.6.1
 _ZN22QBarModelMapperPrivate22modelHeaderDataUpdatedEN2Qt11OrientationEii@Qt_6_PRIVATE_API 6.6.1
 _ZN22QBarModelMapperPrivate6barSetE11QModelIndex@Qt_6_PRIVATE_API 6.6.1
 _ZN22QBarModelMapperPrivateC1EP15QBarModelMapper@Qt_6_PRIVATE_API 6.6.1
 _ZN22QBarModelMapperPrivateC2EP15QBarModelMapper@Qt_6_PRIVATE_API 6.6.1
 _ZN22QCandlestickSetPrivate11qt_metacallEN11QMetaObject4CallEiPPv@Qt_6_PRIVATE_API 6.6.1
 _ZN22QCandlestickSetPrivate11qt_metacastEPKc@Qt_6_PRIVATE_API 6.6.1
 _ZN22QCandlestickSetPrivate12setTimestampEd@Qt_6_PRIVATE_API 6.6.1
 _ZN22QCandlestickSetPrivate13updatedLayoutEv@Qt_6_PRIVATE_API 6.6.1
 _ZN22QCandlestickSetPrivate16staticMetaObjectE@Qt_6_PRIVATE_API 6.6.1
 _ZN22QCandlestickSetPrivate18updatedCandlestickEv@Qt_6_PRIVATE_API 6.6.1
 _ZN22QCandlestickSetPrivateC1EdP15QCandlestickSet@Qt_6_PRIVATE_API 6.6.1
 _ZN22QCandlestickSetPrivateC2EdP15QCandlestickSet@Qt_6_PRIVATE_API 6.6.1
 _ZN22QCandlestickSetPrivateD0Ev@Qt_6_PRIVATE_API 6.6.1
 _ZN22QCandlestickSetPrivateD1Ev@Qt_6_PRIVATE_API 6.6.1
 _ZN22QCandlestickSetPrivateD2Ev@Qt_6_PRIVATE_API 6.6.1
 _ZN22QPieModelMapperPrivate10insertDataEii@Qt_6_PRIVATE_API 6.6.1
 _ZN22QPieModelMapperPrivate10removeDataEii@Qt_6_PRIVATE_API 6.6.1
 _ZN22QPieModelMapperPrivate11qt_metacallEN11QMetaObject4CallEiPPv@Qt_6_PRIVATE_API 6.6.1
 _ZN22QPieModelMapperPrivate11qt_metacastEPKc@Qt_6_PRIVATE_API 6.6.1
 _ZN22QPieModelMapperPrivate11slicesAddedERK5QListIP9QPieSliceE@Qt_6_PRIVATE_API 6.6.1
 _ZN22QPieModelMapperPrivate12modelUpdatedE11QModelIndexS0_@Qt_6_PRIVATE_API 6.6.1
 _ZN22QPieModelMapperPrivate13slicesRemovedERK5QListIP9QPieSliceE@Qt_6_PRIVATE_API 6.6.1
 _ZN22QPieModelMapperPrivate14modelRowsAddedE11QModelIndexii@Qt_6_PRIVATE_API 6.6.1
 _ZN22QPieModelMapperPrivate15labelModelIndexEi@Qt_6_PRIVATE_API 6.6.1
 _ZN22QPieModelMapperPrivate15valueModelIndexEi@Qt_6_PRIVATE_API 6.6.1
 _ZN22QPieModelMapperPrivate16modelRowsRemovedE11QModelIndexii@Qt_6_PRIVATE_API 6.6.1
 _ZN22QPieModelMapperPrivate16staticMetaObjectE@Qt_6_PRIVATE_API 6.6.1
 _ZN22QPieModelMapperPrivate17blockModelSignalsEb@Qt_6_PRIVATE_API 6.6.1
 _ZN22QPieModelMapperPrivate17modelColumnsAddedE11QModelIndexii@Qt_6_PRIVATE_API 6.6.1
 _ZN22QPieModelMapperPrivate17sliceLabelChangedEv@Qt_6_PRIVATE_API 6.6.1
 _ZN22QPieModelMapperPrivate17sliceValueChangedEv@Qt_6_PRIVATE_API 6.6.1
 _ZN22QPieModelMapperPrivate18blockSeriesSignalsEb@Qt_6_PRIVATE_API 6.6.1
 _ZN22QPieModelMapperPrivate19modelColumnsRemovedE11QModelIndexii@Qt_6_PRIVATE_API 6.6.1
 _ZN22QPieModelMapperPrivate20handleModelDestroyedEv@Qt_6_PRIVATE_API 6.6.1
 _ZN22QPieModelMapperPrivate21handleSeriesDestroyedEv@Qt_6_PRIVATE_API 6.6.1
 _ZN22QPieModelMapperPrivate22initializePieFromModelEv@Qt_6_PRIVATE_API 6.6.1
 _ZN22QPieModelMapperPrivateC1EP15QPieModelMapper@Qt_6_PRIVATE_API 6.6.1
 _ZN22QPieModelMapperPrivateC2EP15QPieModelMapper@Qt_6_PRIVATE_API 6.6.1
 _ZN22QXYLegendMarkerPrivate11qt_metacallEN11QMetaObject4CallEiPPv@Qt_6_PRIVATE_API 6.6.1
 _ZN22QXYLegendMarkerPrivate11qt_metacastEPKc@Qt_6_PRIVATE_API 6.6.1
 _ZN22QXYLegendMarkerPrivate13relatedObjectEv@Qt_6_PRIVATE_API 6.6.1
 _ZN22QXYLegendMarkerPrivate16staticMetaObjectE@Qt_6_PRIVATE_API 6.6.1
 _ZN22QXYLegendMarkerPrivate6seriesEv@Qt_6_PRIVATE_API 6.6.1
 _ZN22QXYLegendMarkerPrivate7updatedEv@Qt_6_PRIVATE_API 6.6.1
 _ZN22QXYLegendMarkerPrivateC1EP15QXYLegendMarkerP9QXYSeriesP7QLegend@Qt_6_PRIVATE_API 6.6.1
 _ZN22QXYLegendMarkerPrivateC2EP15QXYLegendMarkerP9QXYSeriesP7QLegend@Qt_6_PRIVATE_API 6.6.1
 _ZN22QXYLegendMarkerPrivateD0Ev@Qt_6_PRIVATE_API 6.6.1
 _ZN22QXYLegendMarkerPrivateD1Ev@Qt_6_PRIVATE_API 6.6.1
 _ZN22QXYLegendMarkerPrivateD2Ev@Qt_6_PRIVATE_API 6.6.1
 _ZN22RotatedRectangleMarker7polygonEdddd@Qt_6_PRIVATE_API 6.6.1
 _ZN22RotatedRectangleMarkerC1EddddP16ScatterChartItem@Qt_6_PRIVATE_API 6.6.1
 _ZN22RotatedRectangleMarkerC2EddddP16ScatterChartItem@Qt_6_PRIVATE_API 6.6.1
 _ZN23LegendMoveResizeHandler14setMouseCursorENS_13MousePositionE@Qt_6_PRIVATE_API 6.6.1
 _ZN23LegendMoveResizeHandler14setMouseCursorEv@Qt_6_PRIVATE_API 6.6.1
 _ZN23LegendMoveResizeHandler20handleHoverMoveEventEP24QGraphicsSceneHoverEvent@Qt_6_PRIVATE_API 6.6.1
 _ZN23LegendMoveResizeHandler20handleMouseMoveEventEP24QGraphicsSceneMouseEvent@Qt_6_PRIVATE_API 6.6.1
 _ZN23LegendMoveResizeHandler21handleHoverEnterEventEP24QGraphicsSceneHoverEvent@Qt_6_PRIVATE_API 6.6.1
 _ZN23LegendMoveResizeHandler21handleHoverLeaveEventEP24QGraphicsSceneHoverEvent@Qt_6_PRIVATE_API 6.6.1
 _ZN23LegendMoveResizeHandler21handleMousePressEventEP24QGraphicsSceneMouseEvent@Qt_6_PRIVATE_API 6.6.1
 _ZN23LegendMoveResizeHandler22determineMousePositionE7QPointF@Qt_6_PRIVATE_API 6.6.1
 _ZN23LegendMoveResizeHandler23handleMouseReleaseEventEP24QGraphicsSceneMouseEvent@Qt_6_PRIVATE_API 6.6.1
 _ZN23LegendMoveResizeHandler5resetEv@Qt_6_PRIVATE_API 6.6.1
 _ZN23LegendMoveResizeHandlerC1EP7QLegend@Qt_6_PRIVATE_API 6.6.1
 _ZN23LegendMoveResizeHandlerC2EP7QLegend@Qt_6_PRIVATE_API 6.6.1
 _ZN23LegendMoveResizeHandlerD1Ev@Qt_6_PRIVATE_API 6.6.1
 _ZN23LegendMoveResizeHandlerD2Ev@Qt_6_PRIVATE_API 6.6.1
 _ZN23QBarCategoryAxisPrivate11qt_metacallEN11QMetaObject4CallEiPPv@Qt_6_PRIVATE_API 6.6.1
 _ZN23QBarCategoryAxisPrivate11qt_metacastEPKc@Qt_6_PRIVATE_API 6.6.1
 _ZN23QBarCategoryAxisPrivate16initializeDomainEP14AbstractDomain@Qt_6_PRIVATE_API 6.6.1
 _ZN23QBarCategoryAxisPrivate16staticMetaObjectE@Qt_6_PRIVATE_API 6.6.1
 _ZN23QBarCategoryAxisPrivate18initializeGraphicsEP13QGraphicsItem@Qt_6_PRIVATE_API 6.6.1
 _ZN23QBarCategoryAxisPrivate20updateCategoryDomainEv@Qt_6_PRIVATE_API 6.6.1
 _ZN23QBarCategoryAxisPrivate6setMaxERK8QVariant@Qt_6_PRIVATE_API 6.6.1
 _ZN23QBarCategoryAxisPrivate6setMinERK8QVariant@Qt_6_PRIVATE_API 6.6.1
 _ZN23QBarCategoryAxisPrivate8setRangeERK7QStringS2_@Qt_6_PRIVATE_API 6.6.1
 _ZN23QBarCategoryAxisPrivate8setRangeERK8QVariantS2_@Qt_6_PRIVATE_API 6.6.1
 _ZN23QBarCategoryAxisPrivate8setRangeEdd@Qt_6_PRIVATE_API 6.6.1
 _ZN23QBarCategoryAxisPrivateC1EP16QBarCategoryAxis@Qt_6_PRIVATE_API 6.6.1
 _ZN23QBarCategoryAxisPrivateC2EP16QBarCategoryAxis@Qt_6_PRIVATE_API 6.6.1
 _ZN23QBarCategoryAxisPrivateD0Ev@Qt_6_PRIVATE_API 6.6.1
 _ZN23QBarCategoryAxisPrivateD1Ev@Qt_6_PRIVATE_API 6.6.1
 _ZN23QBarCategoryAxisPrivateD2Ev@Qt_6_PRIVATE_API 6.6.1
 _ZN23QBarLegendMarkerPrivate11qt_metacallEN11QMetaObject4CallEiPPv@Qt_6_PRIVATE_API 6.6.1
 _ZN23QBarLegendMarkerPrivate11qt_metacastEPKc@Qt_6_PRIVATE_API 6.6.1
 _ZN23QBarLegendMarkerPrivate13relatedObjectEv@Qt_6_PRIVATE_API 6.6.1
 _ZN23QBarLegendMarkerPrivate16staticMetaObjectE@Qt_6_PRIVATE_API 6.6.1
 _ZN23QBarLegendMarkerPrivate6seriesEv@Qt_6_PRIVATE_API 6.6.1
 _ZN23QBarLegendMarkerPrivate7updatedEv@Qt_6_PRIVATE_API 6.6.1
 _ZN23QBarLegendMarkerPrivateC1EP16QBarLegendMarkerP18QAbstractBarSeriesP7QBarSetP7QLegend@Qt_6_PRIVATE_API 6.6.1
 _ZN23QBarLegendMarkerPrivateC2EP16QBarLegendMarkerP18QAbstractBarSeriesP7QBarSetP7QLegend@Qt_6_PRIVATE_API 6.6.1
 _ZN23QBarLegendMarkerPrivateD0Ev@Qt_6_PRIVATE_API 6.6.1
 _ZN23QBarLegendMarkerPrivateD1Ev@Qt_6_PRIVATE_API 6.6.1
 _ZN23QBarLegendMarkerPrivateD2Ev@Qt_6_PRIVATE_API 6.6.1
 _ZN23QCandlestickModelMapper11qt_metacallEN11QMetaObject4CallEiPPv@Qt_6 6.6.1
 _ZN23QCandlestickModelMapper11qt_metacastEPKc@Qt_6 6.6.1
 _ZN23QCandlestickModelMapper12setTimestampEi@Qt_6 6.6.1
 _ZN23QCandlestickModelMapper13modelReplacedEv@Qt_6 6.6.1
 _ZN23QCandlestickModelMapper14seriesReplacedEv@Qt_6 6.6.1
 _ZN23QCandlestickModelMapper16staticMetaObjectE@Qt_6 6.6.1
 _ZN23QCandlestickModelMapper17setLastSetSectionEi@Qt_6 6.6.1
 _ZN23QCandlestickModelMapper18setFirstSetSectionEi@Qt_6 6.6.1
 _ZN23QCandlestickModelMapper6setLowEi@Qt_6 6.6.1
 _ZN23QCandlestickModelMapper7setHighEi@Qt_6 6.6.1
 _ZN23QCandlestickModelMapper7setOpenEi@Qt_6 6.6.1
 _ZN23QCandlestickModelMapper8setCloseEi@Qt_6 6.6.1
 _ZN23QCandlestickModelMapper8setModelEP18QAbstractItemModel@Qt_6 6.6.1
 _ZN23QCandlestickModelMapper9setSeriesEP18QCandlestickSeries@Qt_6 6.6.1
 _ZN23QCandlestickModelMapperC1EP7QObject@Qt_6 6.6.1
 _ZN23QCandlestickModelMapperC2EP7QObject@Qt_6 6.6.1
 _ZN23QPieLegendMarkerPrivate11qt_metacallEN11QMetaObject4CallEiPPv@Qt_6_PRIVATE_API 6.6.1
 _ZN23QPieLegendMarkerPrivate11qt_metacastEPKc@Qt_6_PRIVATE_API 6.6.1
 _ZN23QPieLegendMarkerPrivate13relatedObjectEv@Qt_6_PRIVATE_API 6.6.1
 _ZN23QPieLegendMarkerPrivate16staticMetaObjectE@Qt_6_PRIVATE_API 6.6.1
 _ZN23QPieLegendMarkerPrivate6seriesEv@Qt_6_PRIVATE_API 6.6.1
 _ZN23QPieLegendMarkerPrivate7updatedEv@Qt_6_PRIVATE_API 6.6.1
 _ZN23QPieLegendMarkerPrivateC1EP16QPieLegendMarkerP10QPieSeriesP9QPieSliceP7QLegend@Qt_6_PRIVATE_API 6.6.1
 _ZN23QPieLegendMarkerPrivateC2EP16QPieLegendMarkerP10QPieSeriesP9QPieSliceP7QLegend@Qt_6_PRIVATE_API 6.6.1
 _ZN23QPieLegendMarkerPrivateD0Ev@Qt_6_PRIVATE_API 6.6.1
 _ZN23QPieLegendMarkerPrivateD1Ev@Qt_6_PRIVATE_API 6.6.1
 _ZN23QPieLegendMarkerPrivateD2Ev@Qt_6_PRIVATE_API 6.6.1
 _ZN24QAreaLegendMarkerPrivate11qt_metacallEN11QMetaObject4CallEiPPv@Qt_6_PRIVATE_API 6.6.1
 _ZN24QAreaLegendMarkerPrivate11qt_metacastEPKc@Qt_6_PRIVATE_API 6.6.1
 _ZN24QAreaLegendMarkerPrivate13relatedObjectEv@Qt_6_PRIVATE_API 6.6.1
 _ZN24QAreaLegendMarkerPrivate16staticMetaObjectE@Qt_6_PRIVATE_API 6.6.1
 _ZN24QAreaLegendMarkerPrivate6seriesEv@Qt_6_PRIVATE_API 6.6.1
 _ZN24QAreaLegendMarkerPrivate7updatedEv@Qt_6_PRIVATE_API 6.6.1
 _ZN24QAreaLegendMarkerPrivateC1EP17QAreaLegendMarkerP11QAreaSeriesP7QLegend@Qt_6_PRIVATE_API 6.6.1
 _ZN24QAreaLegendMarkerPrivateC2EP17QAreaLegendMarkerP11QAreaSeriesP7QLegend@Qt_6_PRIVATE_API 6.6.1
 _ZN24QAreaLegendMarkerPrivateD0Ev@Qt_6_PRIVATE_API 6.6.1
 _ZN24QAreaLegendMarkerPrivateD1Ev@Qt_6_PRIVATE_API 6.6.1
 _ZN24QAreaLegendMarkerPrivateD2Ev@Qt_6_PRIVATE_API 6.6.1
 _ZN24QCandlestickLegendMarker11qt_metacallEN11QMetaObject4CallEiPPv@Qt_6 6.6.1
 _ZN24QCandlestickLegendMarker11qt_metacastEPKc@Qt_6 6.6.1
 _ZN24QCandlestickLegendMarker16staticMetaObjectE@Qt_6 6.6.1
 _ZN24QCandlestickLegendMarker4typeEv@Qt_6 6.6.1
 _ZN24QCandlestickLegendMarker6seriesEv@Qt_6 6.6.1
 _ZN24QCandlestickLegendMarkerC1EP18QCandlestickSeriesP7QLegendP7QObject@Qt_6 6.6.1
 _ZN24QCandlestickLegendMarkerC2EP18QCandlestickSeriesP7QLegendP7QObject@Qt_6 6.6.1
 _ZN24QCandlestickLegendMarkerD0Ev@Qt_6 6.6.1
 _ZN24QCandlestickLegendMarkerD1Ev@Qt_6 6.6.1
 _ZN24QCandlestickLegendMarkerD2Ev@Qt_6 6.6.1
 _ZN24QHCandlestickModelMapper11qt_metacallEN11QMetaObject4CallEiPPv@Qt_6 6.6.1
 _ZN24QHCandlestickModelMapper11qt_metacastEPKc@Qt_6 6.6.1
 _ZN24QHCandlestickModelMapper12setLowColumnEi@Qt_6 6.6.1
 _ZN24QHCandlestickModelMapper13setHighColumnEi@Qt_6 6.6.1
 _ZN24QHCandlestickModelMapper13setLastSetRowEi@Qt_6 6.6.1
 _ZN24QHCandlestickModelMapper13setOpenColumnEi@Qt_6 6.6.1
 _ZN24QHCandlestickModelMapper14setCloseColumnEi@Qt_6 6.6.1
 _ZN24QHCandlestickModelMapper14setFirstSetRowEi@Qt_6 6.6.1
 _ZN24QHCandlestickModelMapper16lowColumnChangedEv@Qt_6 6.6.1
 _ZN24QHCandlestickModelMapper16staticMetaObjectE@Qt_6 6.6.1
 _ZN24QHCandlestickModelMapper17highColumnChangedEv@Qt_6 6.6.1
 _ZN24QHCandlestickModelMapper17lastSetRowChangedEv@Qt_6 6.6.1
 _ZN24QHCandlestickModelMapper17openColumnChangedEv@Qt_6 6.6.1
 _ZN24QHCandlestickModelMapper18closeColumnChangedEv@Qt_6 6.6.1
 _ZN24QHCandlestickModelMapper18firstSetRowChangedEv@Qt_6 6.6.1
 _ZN24QHCandlestickModelMapper18setTimestampColumnEi@Qt_6 6.6.1
 _ZN24QHCandlestickModelMapper22timestampColumnChangedEv@Qt_6 6.6.1
 _ZN24QHCandlestickModelMapperC1EP7QObject@Qt_6 6.6.1
 _ZN24QHCandlestickModelMapperC2EP7QObject@Qt_6 6.6.1
 _ZN24QPercentBarSeriesPrivate16initializeDomainEv@Qt_6_PRIVATE_API 6.6.1
 _ZN24QPercentBarSeriesPrivate18initializeGraphicsEP13QGraphicsItem@Qt_6_PRIVATE_API 6.6.1
 _ZN24QPercentBarSeriesPrivateC1EP17QPercentBarSeries@Qt_6_PRIVATE_API 6.6.1
 _ZN24QPercentBarSeriesPrivateC2EP17QPercentBarSeries@Qt_6_PRIVATE_API 6.6.1
 _ZN24QStackedBarSeriesPrivate16initializeDomainEv@Qt_6_PRIVATE_API 6.6.1
 _ZN24QStackedBarSeriesPrivate18initializeGraphicsEP13QGraphicsItem@Qt_6_PRIVATE_API 6.6.1
 _ZN24QStackedBarSeriesPrivateC1EP17QStackedBarSeries@Qt_6_PRIVATE_API 6.6.1
 _ZN24QStackedBarSeriesPrivateC2EP17QStackedBarSeries@Qt_6_PRIVATE_API 6.6.1
 _ZN24QVCandlestickModelMapper10setHighRowEi@Qt_6 6.6.1
 _ZN24QVCandlestickModelMapper10setOpenRowEi@Qt_6 6.6.1
 _ZN24QVCandlestickModelMapper11qt_metacallEN11QMetaObject4CallEiPPv@Qt_6 6.6.1
 _ZN24QVCandlestickModelMapper11qt_metacastEPKc@Qt_6 6.6.1
 _ZN24QVCandlestickModelMapper11setCloseRowEi@Qt_6 6.6.1
 _ZN24QVCandlestickModelMapper13lowRowChangedEv@Qt_6 6.6.1
 _ZN24QVCandlestickModelMapper14highRowChangedEv@Qt_6 6.6.1
 _ZN24QVCandlestickModelMapper14openRowChangedEv@Qt_6 6.6.1
 _ZN24QVCandlestickModelMapper15closeRowChangedEv@Qt_6 6.6.1
 _ZN24QVCandlestickModelMapper15setTimestampRowEi@Qt_6 6.6.1
 _ZN24QVCandlestickModelMapper16setLastSetColumnEi@Qt_6 6.6.1
 _ZN24QVCandlestickModelMapper16staticMetaObjectE@Qt_6 6.6.1
 _ZN24QVCandlestickModelMapper17setFirstSetColumnEi@Qt_6 6.6.1
 _ZN24QVCandlestickModelMapper19timestampRowChangedEv@Qt_6 6.6.1
 _ZN24QVCandlestickModelMapper20lastSetColumnChangedEv@Qt_6 6.6.1
 _ZN24QVCandlestickModelMapper21firstSetColumnChangedEv@Qt_6 6.6.1
 _ZN24QVCandlestickModelMapper9setLowRowEi@Qt_6 6.6.1
 _ZN24QVCandlestickModelMapperC1EP7QObject@Qt_6 6.6.1
 _ZN24QVCandlestickModelMapperC2EP7QObject@Qt_6 6.6.1
 _ZN25PolarChartValueAxisRadial11qt_metacallEN11QMetaObject4CallEiPPv@Qt_6_PRIVATE_API 6.6.1
 _ZN25PolarChartValueAxisRadial11qt_metacastEPKc@Qt_6_PRIVATE_API 6.6.1
 _ZN25PolarChartValueAxisRadial16createAxisLabelsERK5QListIdE@Qt_6_PRIVATE_API 6.6.1
 _ZN25PolarChartValueAxisRadial16staticMetaObjectE@Qt_6_PRIVATE_API 6.6.1
 _ZN25PolarChartValueAxisRadial22handleTickCountChangedEi@Qt_6_PRIVATE_API 6.6.1
 _ZN25PolarChartValueAxisRadial24handleLabelFormatChangedERK7QString@Qt_6_PRIVATE_API 6.6.1
 _ZN25PolarChartValueAxisRadial27handleMinorTickCountChangedEi@Qt_6_PRIVATE_API 6.6.1
 _ZN25PolarChartValueAxisRadialC1EP10QValueAxisP13QGraphicsItem@Qt_6_PRIVATE_API 6.6.1
 _ZN25PolarChartValueAxisRadialC2EP10QValueAxisP13QGraphicsItem@Qt_6_PRIVATE_API 6.6.1
 _ZN25PolarChartValueAxisRadialD0Ev@Qt_6_PRIVATE_API 6.6.1
 _ZN25PolarChartValueAxisRadialD1Ev@Qt_6_PRIVATE_API 6.6.1
 _ZN25PolarChartValueAxisRadialD2Ev@Qt_6_PRIVATE_API 6.6.1
 _ZN25QAbstractBarSeriesPrivate10setVisibleEb@Qt_6_PRIVATE_API 6.6.1
 _ZN25QAbstractBarSeriesPrivate11categorySumEi@Qt_6_PRIVATE_API 6.6.1
 _ZN25QAbstractBarSeriesPrivate11categoryTopEi@Qt_6_PRIVATE_API 6.6.1
 _ZN25QAbstractBarSeriesPrivate11qt_metacallEN11QMetaObject4CallEiPPv@Qt_6_PRIVATE_API 6.6.1
 _ZN25QAbstractBarSeriesPrivate11qt_metacastEPKc@Qt_6_PRIVATE_API 6.6.1
 _ZN25QAbstractBarSeriesPrivate11setBarWidthEd@Qt_6_PRIVATE_API 6.6.1
 _ZN25QAbstractBarSeriesPrivate11updatedBarsEv@Qt_6_PRIVATE_API 6.6.1
 _ZN25QAbstractBarSeriesPrivate12percentageAtEii@Qt_6_PRIVATE_API 6.6.1
 _ZN25QAbstractBarSeriesPrivate13doubleClickedEiP7QBarSet@Qt_6_PRIVATE_API 6.6.1
 _ZN25QAbstractBarSeriesPrivate13setValueAddedEiiP7QBarSet@Qt_6_PRIVATE_API 6.6.1
 _ZN25QAbstractBarSeriesPrivate13updatedLayoutEv@Qt_6_PRIVATE_API 6.6.1
 _ZN25QAbstractBarSeriesPrivate14blockBarUpdateEv@Qt_6_PRIVATE_API 6.6.1
 _ZN25QAbstractBarSeriesPrivate14categoryBottomEi@Qt_6_PRIVATE_API 6.6.1
 _ZN25QAbstractBarSeriesPrivate14initializeAxesEv@Qt_6_PRIVATE_API 6.6.1
 _ZN25QAbstractBarSeriesPrivate14maxCategorySumEv@Qt_6_PRIVATE_API 6.6.1
 _ZN25QAbstractBarSeriesPrivate14visibleChangedEv@Qt_6_PRIVATE_API 6.6.1
 _ZN25QAbstractBarSeriesPrivate15initializeThemeEiP10ChartThemeb@Qt_6_PRIVATE_API 6.6.1
 _ZN25QAbstractBarSeriesPrivate15setValueChangedEiP7QBarSet@Qt_6_PRIVATE_API 6.6.1
 _ZN25QAbstractBarSeriesPrivate15setValueRemovedEiiP7QBarSet@Qt_6_PRIVATE_API 6.6.1
 _ZN25QAbstractBarSeriesPrivate16initializeDomainEv@Qt_6_PRIVATE_API 6.6.1
 _ZN25QAbstractBarSeriesPrivate16restructuredBarsEv@Qt_6_PRIVATE_API 6.6.1
 _ZN25QAbstractBarSeriesPrivate16setLabelsVisibleEb@Qt_6_PRIVATE_API 6.6.1
 _ZN25QAbstractBarSeriesPrivate16staticMetaObjectE@Qt_6_PRIVATE_API 6.6.1
 _ZN25QAbstractBarSeriesPrivate17handleSetValueAddEii@Qt_6_PRIVATE_API 6.6.1
 _ZN25QAbstractBarSeriesPrivate18populateCategoriesEP16QBarCategoryAxis@Qt_6_PRIVATE_API 6.6.1
 _ZN25QAbstractBarSeriesPrivate19absoluteCategorySumEi@Qt_6_PRIVATE_API 6.6.1
 _ZN25QAbstractBarSeriesPrivate19createLegendMarkersEP7QLegend@Qt_6_PRIVATE_API 6.6.1
 _ZN25QAbstractBarSeriesPrivate20handleSetValueChangeEi@Qt_6_PRIVATE_API 6.6.1
 _ZN25QAbstractBarSeriesPrivate20handleSetValueRemoveEii@Qt_6_PRIVATE_API 6.6.1
 _ZN25QAbstractBarSeriesPrivate20initializeAnimationsE6QFlagsIN6QChart15AnimationOptionEEiR12QEasingCurve@Qt_6_PRIVATE_API 6.6.1
 _ZN25QAbstractBarSeriesPrivate20labelsVisibleChangedEb@Qt_6_PRIVATE_API 6.6.1
 _ZN25QAbstractBarSeriesPrivate3maxEv@Qt_6_PRIVATE_API 6.6.1
 _ZN25QAbstractBarSeriesPrivate3minEv@Qt_6_PRIVATE_API 6.6.1
 _ZN25QAbstractBarSeriesPrivate3topEv@Qt_6_PRIVATE_API 6.6.1
 _ZN25QAbstractBarSeriesPrivate4maxXEv@Qt_6_PRIVATE_API 6.6.1
 _ZN25QAbstractBarSeriesPrivate4minXEv@Qt_6_PRIVATE_API 6.6.1
 _ZN25QAbstractBarSeriesPrivate6appendEP7QBarSet@Qt_6_PRIVATE_API 6.6.1
 _ZN25QAbstractBarSeriesPrivate6appendERK5QListIP7QBarSetE@Qt_6_PRIVATE_API 6.6.1
 _ZN25QAbstractBarSeriesPrivate6bottomEv@Qt_6_PRIVATE_API 6.6.1
 _ZN25QAbstractBarSeriesPrivate6insertEiP7QBarSet@Qt_6_PRIVATE_API 6.6.1
 _ZN25QAbstractBarSeriesPrivate6removeEP7QBarSet@Qt_6_PRIVATE_API 6.6.1
 _ZN25QAbstractBarSeriesPrivate6removeERK5QListIP7QBarSetE@Qt_6_PRIVATE_API 6.6.1
 _ZN25QAbstractBarSeriesPrivate7clickedEiP7QBarSet@Qt_6_PRIVATE_API 6.6.1
 _ZN25QAbstractBarSeriesPrivate7pressedEiP7QBarSet@Qt_6_PRIVATE_API 6.6.1
 _ZN25QAbstractBarSeriesPrivate7valueAtEii@Qt_6_PRIVATE_API 6.6.1
 _ZN25QAbstractBarSeriesPrivate8barsetAtEi@Qt_6_PRIVATE_API 6.6.1
 _ZN25QAbstractBarSeriesPrivate8releasedEiP7QBarSet@Qt_6_PRIVATE_API 6.6.1
 _ZN25QAbstractBarSeriesPrivateC1EP18QAbstractBarSeries@Qt_6_PRIVATE_API 6.6.1
 _ZN25QAbstractBarSeriesPrivateC2EP18QAbstractBarSeries@Qt_6_PRIVATE_API 6.6.1
 _ZN25QCandlestickSeriesPrivate11qt_metacallEN11QMetaObject4CallEiPPv@Qt_6_PRIVATE_API 6.6.1
 _ZN25QCandlestickSeriesPrivate11qt_metacastEPKc@Qt_6_PRIVATE_API 6.6.1
 _ZN25QCandlestickSeriesPrivate13doubleClickedEiP15QCandlestickSet@Qt_6_PRIVATE_API 6.6.1
 _ZN25QCandlestickSeriesPrivate13updatedLayoutEv@Qt_6_PRIVATE_API 6.6.1
 _ZN25QCandlestickSeriesPrivate14initializeAxesEv@Qt_6_PRIVATE_API 6.6.1
 _ZN25QCandlestickSeriesPrivate15initializeThemeEiP10ChartThemeb@Qt_6_PRIVATE_API 6.6.1
 _ZN25QCandlestickSeriesPrivate16initializeDomainEv@Qt_6_PRIVATE_API 6.6.1
 _ZN25QCandlestickSeriesPrivate16staticMetaObjectE@Qt_6_PRIVATE_API 6.6.1
 _ZN25QCandlestickSeriesPrivate18handleSeriesChangeEP15QAbstractSeries@Qt_6_PRIVATE_API 6.6.1
 _ZN25QCandlestickSeriesPrivate18handleSeriesRemoveEP15QAbstractSeries@Qt_6_PRIVATE_API 6.6.1
 _ZN25QCandlestickSeriesPrivate18initializeGraphicsEP13QGraphicsItem@Qt_6_PRIVATE_API 6.6.1
 _ZN25QCandlestickSeriesPrivate19createLegendMarkersEP7QLegend@Qt_6_PRIVATE_API 6.6.1
 _ZN25QCandlestickSeriesPrivate19updatedCandlesticksEv@Qt_6_PRIVATE_API 6.6.1
 _ZN25QCandlestickSeriesPrivate20initializeAnimationsE6QFlagsIN6QChart15AnimationOptionEEiR12QEasingCurve@Qt_6_PRIVATE_API 6.6.1
 _ZN25QCandlestickSeriesPrivate21populateBarCategoriesEP16QBarCategoryAxis@Qt_6_PRIVATE_API 6.6.1
 _ZN25QCandlestickSeriesPrivate6appendERK5QListIP15QCandlestickSetE@Qt_6_PRIVATE_API 6.6.1
 _ZN25QCandlestickSeriesPrivate6insertEiP15QCandlestickSet@Qt_6_PRIVATE_API 6.6.1
 _ZN25QCandlestickSeriesPrivate6removeERK5QListIP15QCandlestickSetE@Qt_6_PRIVATE_API 6.6.1
 _ZN25QCandlestickSeriesPrivate7clickedEiP15QCandlestickSet@Qt_6_PRIVATE_API 6.6.1
 _ZN25QCandlestickSeriesPrivate7pressedEiP15QCandlestickSet@Qt_6_PRIVATE_API 6.6.1
 _ZN25QCandlestickSeriesPrivate7updatedEv@Qt_6_PRIVATE_API 6.6.1
 _ZN25QCandlestickSeriesPrivate8releasedEiP15QCandlestickSet@Qt_6_PRIVATE_API 6.6.1
 _ZN25QCandlestickSeriesPrivateC1EP18QCandlestickSeries@Qt_6_PRIVATE_API 6.6.1
 _ZN25QCandlestickSeriesPrivateC2EP18QCandlestickSeries@Qt_6_PRIVATE_API 6.6.1
 _ZN25QCandlestickSeriesPrivateD0Ev@Qt_6_PRIVATE_API 6.6.1
 _ZN25QCandlestickSeriesPrivateD1Ev@Qt_6_PRIVATE_API 6.6.1
 _ZN25QCandlestickSeriesPrivateD2Ev@Qt_6_PRIVATE_API 6.6.1
 _ZN26PolarChartValueAxisAngular11qt_metacallEN11QMetaObject4CallEiPPv@Qt_6_PRIVATE_API 6.6.1
 _ZN26PolarChartValueAxisAngular11qt_metacastEPKc@Qt_6_PRIVATE_API 6.6.1
 _ZN26PolarChartValueAxisAngular16createAxisLabelsERK5QListIdE@Qt_6_PRIVATE_API 6.6.1
 _ZN26PolarChartValueAxisAngular16staticMetaObjectE@Qt_6_PRIVATE_API 6.6.1
 _ZN26PolarChartValueAxisAngular22handleTickCountChangedEi@Qt_6_PRIVATE_API 6.6.1
 _ZN26PolarChartValueAxisAngular24handleLabelFormatChangedERK7QString@Qt_6_PRIVATE_API 6.6.1
 _ZN26PolarChartValueAxisAngular27handleMinorTickCountChangedEi@Qt_6_PRIVATE_API 6.6.1
 _ZN26PolarChartValueAxisAngularC1EP10QValueAxisP13QGraphicsItem@Qt_6_PRIVATE_API 6.6.1
 _ZN26PolarChartValueAxisAngularC2EP10QValueAxisP13QGraphicsItem@Qt_6_PRIVATE_API 6.6.1
 _ZN26PolarChartValueAxisAngularD0Ev@Qt_6_PRIVATE_API 6.6.1
 _ZN26PolarChartValueAxisAngularD1Ev@Qt_6_PRIVATE_API 6.6.1
 _ZN26PolarChartValueAxisAngularD2Ev@Qt_6_PRIVATE_API 6.6.1
 _ZN26QBoxPlotModelMapperPrivate10insertDataEii@Qt_6_PRIVATE_API 6.6.1
 _ZN26QBoxPlotModelMapperPrivate10removeDataEii@Qt_6_PRIVATE_API 6.6.1
 _ZN26QBoxPlotModelMapperPrivate11qt_metacallEN11QMetaObject4CallEiPPv@Qt_6_PRIVATE_API 6.6.1
 _ZN26QBoxPlotModelMapperPrivate11qt_metacastEPKc@Qt_6_PRIVATE_API 6.6.1
 _ZN26QBoxPlotModelMapperPrivate12boxSetsAddedERK5QListIP7QBoxSetE@Qt_6_PRIVATE_API 6.6.1
 _ZN26QBoxPlotModelMapperPrivate12modelUpdatedE11QModelIndexS0_@Qt_6_PRIVATE_API 6.6.1
 _ZN26QBoxPlotModelMapperPrivate13boxModelIndexEii@Qt_6_PRIVATE_API 6.6.1
 _ZN26QBoxPlotModelMapperPrivate14boxSetsRemovedERK5QListIP7QBoxSetE@Qt_6_PRIVATE_API 6.6.1
 _ZN26QBoxPlotModelMapperPrivate14modelRowsAddedE11QModelIndexii@Qt_6_PRIVATE_API 6.6.1
 _ZN26QBoxPlotModelMapperPrivate15boxValueChangedEi@Qt_6_PRIVATE_API 6.6.1
 _ZN26QBoxPlotModelMapperPrivate16modelRowsRemovedE11QModelIndexii@Qt_6_PRIVATE_API 6.6.1
 _ZN26QBoxPlotModelMapperPrivate16staticMetaObjectE@Qt_6_PRIVATE_API 6.6.1
 _ZN26QBoxPlotModelMapperPrivate17blockModelSignalsEb@Qt_6_PRIVATE_API 6.6.1
 _ZN26QBoxPlotModelMapperPrivate17modelColumnsAddedE11QModelIndexii@Qt_6_PRIVATE_API 6.6.1
 _ZN26QBoxPlotModelMapperPrivate18blockSeriesSignalsEb@Qt_6_PRIVATE_API 6.6.1
 _ZN26QBoxPlotModelMapperPrivate19modelColumnsRemovedE11QModelIndexii@Qt_6_PRIVATE_API 6.6.1
 _ZN26QBoxPlotModelMapperPrivate20handleModelDestroyedEv@Qt_6_PRIVATE_API 6.6.1
 _ZN26QBoxPlotModelMapperPrivate21handleSeriesDestroyedEv@Qt_6_PRIVATE_API 6.6.1
 _ZN26QBoxPlotModelMapperPrivate22initializeBoxFromModelEv@Qt_6_PRIVATE_API 6.6.1
 _ZN26QBoxPlotModelMapperPrivate22modelHeaderDataUpdatedEN2Qt11OrientationEii@Qt_6_PRIVATE_API 6.6.1
 _ZN26QBoxPlotModelMapperPrivate6boxSetE11QModelIndex@Qt_6_PRIVATE_API 6.6.1
 _ZN26QBoxPlotModelMapperPrivateC1EP19QBoxPlotModelMapper@Qt_6_PRIVATE_API 6.6.1
 _ZN26QBoxPlotModelMapperPrivateC2EP19QBoxPlotModelMapper@Qt_6_PRIVATE_API 6.6.1
 _ZN27QBoxPlotLegendMarkerPrivate11qt_metacallEN11QMetaObject4CallEiPPv@Qt_6_PRIVATE_API 6.6.1
 _ZN27QBoxPlotLegendMarkerPrivate11qt_metacastEPKc@Qt_6_PRIVATE_API 6.6.1
 _ZN27QBoxPlotLegendMarkerPrivate13relatedObjectEv@Qt_6_PRIVATE_API 6.6.1
 _ZN27QBoxPlotLegendMarkerPrivate16staticMetaObjectE@Qt_6_PRIVATE_API 6.6.1
 _ZN27QBoxPlotLegendMarkerPrivate6seriesEv@Qt_6_PRIVATE_API 6.6.1
 _ZN27QBoxPlotLegendMarkerPrivate7updatedEv@Qt_6_PRIVATE_API 6.6.1
 _ZN27QBoxPlotLegendMarkerPrivateC1EP20QBoxPlotLegendMarkerP14QBoxPlotSeriesP7QLegend@Qt_6_PRIVATE_API 6.6.1
 _ZN27QBoxPlotLegendMarkerPrivateC2EP20QBoxPlotLegendMarkerP14QBoxPlotSeriesP7QLegend@Qt_6_PRIVATE_API 6.6.1
 _ZN27QBoxPlotLegendMarkerPrivateD0Ev@Qt_6_PRIVATE_API 6.6.1
 _ZN27QBoxPlotLegendMarkerPrivateD1Ev@Qt_6_PRIVATE_API 6.6.1
 _ZN27QBoxPlotLegendMarkerPrivateD2Ev@Qt_6_PRIVATE_API 6.6.1
 _ZN27QHorizontalBarSeriesPrivate16initializeDomainEv@Qt_6_PRIVATE_API 6.6.1
 _ZN27QHorizontalBarSeriesPrivate18initializeGraphicsEP13QGraphicsItem@Qt_6_PRIVATE_API 6.6.1
 _ZN27QHorizontalBarSeriesPrivateC1EP20QHorizontalBarSeries@Qt_6_PRIVATE_API 6.6.1
 _ZN27QHorizontalBarSeriesPrivateC2EP20QHorizontalBarSeries@Qt_6_PRIVATE_API 6.6.1
 _ZN27QHorizontalPercentBarSeries11qt_metacallEN11QMetaObject4CallEiPPv@Qt_6 6.6.1
 _ZN27QHorizontalPercentBarSeries11qt_metacastEPKc@Qt_6 6.6.1
 _ZN27QHorizontalPercentBarSeries16staticMetaObjectE@Qt_6 6.6.1
 _ZN27QHorizontalPercentBarSeriesC1EP7QObject@Qt_6 6.6.1
 _ZN27QHorizontalPercentBarSeriesC2EP7QObject@Qt_6 6.6.1
 _ZN27QHorizontalPercentBarSeriesD0Ev@Qt_6 6.6.1
 _ZN27QHorizontalPercentBarSeriesD1Ev@Qt_6 6.6.1
 _ZN27QHorizontalPercentBarSeriesD2Ev@Qt_6 6.6.1
 _ZN27QHorizontalStackedBarSeries11qt_metacallEN11QMetaObject4CallEiPPv@Qt_6 6.6.1
 _ZN27QHorizontalStackedBarSeries11qt_metacastEPKc@Qt_6 6.6.1
 _ZN27QHorizontalStackedBarSeries16staticMetaObjectE@Qt_6 6.6.1
 _ZN27QHorizontalStackedBarSeriesC1EP7QObject@Qt_6 6.6.1
 _ZN27QHorizontalStackedBarSeriesC2EP7QObject@Qt_6 6.6.1
 _ZN27QHorizontalStackedBarSeriesD0Ev@Qt_6 6.6.1
 _ZN27QHorizontalStackedBarSeriesD1Ev@Qt_6 6.6.1
 _ZN27QHorizontalStackedBarSeriesD2Ev@Qt_6 6.6.1
 _ZN28PolarChartCategoryAxisRadial11qt_metacallEN11QMetaObject4CallEiPPv@Qt_6_PRIVATE_API 6.6.1
 _ZN28PolarChartCategoryAxisRadial11qt_metacastEPKc@Qt_6_PRIVATE_API 6.6.1
 _ZN28PolarChartCategoryAxisRadial16createAxisLabelsERK5QListIdE@Qt_6_PRIVATE_API 6.6.1
 _ZN28PolarChartCategoryAxisRadial16staticMetaObjectE@Qt_6_PRIVATE_API 6.6.1
 _ZN28PolarChartCategoryAxisRadial23handleCategoriesChangedEv@Qt_6_PRIVATE_API 6.6.1
 _ZN28PolarChartCategoryAxisRadialC1EP13QCategoryAxisP13QGraphicsItem@Qt_6_PRIVATE_API 6.6.1
 _ZN28PolarChartCategoryAxisRadialC2EP13QCategoryAxisP13QGraphicsItem@Qt_6_PRIVATE_API 6.6.1
 _ZN28PolarChartCategoryAxisRadialD0Ev@Qt_6_PRIVATE_API 6.6.1
 _ZN28PolarChartCategoryAxisRadialD1Ev@Qt_6_PRIVATE_API 6.6.1
 _ZN28PolarChartCategoryAxisRadialD2Ev@Qt_6_PRIVATE_API 6.6.1
 _ZN28PolarChartDateTimeAxisRadial11qt_metacallEN11QMetaObject4CallEiPPv@Qt_6_PRIVATE_API 6.6.1
 _ZN28PolarChartDateTimeAxisRadial11qt_metacastEPKc@Qt_6_PRIVATE_API 6.6.1
 _ZN28PolarChartDateTimeAxisRadial16createAxisLabelsERK5QListIdE@Qt_6_PRIVATE_API 6.6.1
 _ZN28PolarChartDateTimeAxisRadial16staticMetaObjectE@Qt_6_PRIVATE_API 6.6.1
 _ZN28PolarChartDateTimeAxisRadial19handleFormatChangedERK7QString@Qt_6_PRIVATE_API 6.6.1
 _ZN28PolarChartDateTimeAxisRadial22handleTickCountChangedEi@Qt_6_PRIVATE_API 6.6.1
 _ZN28PolarChartDateTimeAxisRadialC1EP13QDateTimeAxisP13QGraphicsItem@Qt_6_PRIVATE_API 6.6.1
 _ZN28PolarChartDateTimeAxisRadialC2EP13QDateTimeAxisP13QGraphicsItem@Qt_6_PRIVATE_API 6.6.1
 _ZN28PolarChartDateTimeAxisRadialD0Ev@Qt_6_PRIVATE_API 6.6.1
 _ZN28PolarChartDateTimeAxisRadialD1Ev@Qt_6_PRIVATE_API 6.6.1
 _ZN28PolarChartDateTimeAxisRadialD2Ev@Qt_6_PRIVATE_API 6.6.1
 _ZN28PolarChartLogValueAxisRadial11qt_metacallEN11QMetaObject4CallEiPPv@Qt_6_PRIVATE_API 6.6.1
 _ZN28PolarChartLogValueAxisRadial11qt_metacastEPKc@Qt_6_PRIVATE_API 6.6.1
 _ZN28PolarChartLogValueAxisRadial16createAxisLabelsERK5QListIdE@Qt_6_PRIVATE_API 6.6.1
 _ZN28PolarChartLogValueAxisRadial16staticMetaObjectE@Qt_6_PRIVATE_API 6.6.1
 _ZN28PolarChartLogValueAxisRadial17handleBaseChangedEd@Qt_6_PRIVATE_API 6.6.1
 _ZN28PolarChartLogValueAxisRadial24handleLabelFormatChangedERK7QString@Qt_6_PRIVATE_API 6.6.1
 _ZN28PolarChartLogValueAxisRadialC1EP13QLogValueAxisP13QGraphicsItem@Qt_6_PRIVATE_API 6.6.1
 _ZN28PolarChartLogValueAxisRadialC2EP13QLogValueAxisP13QGraphicsItem@Qt_6_PRIVATE_API 6.6.1
 _ZN28PolarChartLogValueAxisRadialD0Ev@Qt_6_PRIVATE_API 6.6.1
 _ZN28PolarChartLogValueAxisRadialD1Ev@Qt_6_PRIVATE_API 6.6.1
 _ZN28PolarChartLogValueAxisRadialD2Ev@Qt_6_PRIVATE_API 6.6.1
 _ZN29CandlestickBodyWicksAnimation10setEndDataERK15CandlestickData@Qt_6_PRIVATE_API 6.6.1
 _ZN29CandlestickBodyWicksAnimation11qt_metacallEN11QMetaObject4CallEiPPv@Qt_6_PRIVATE_API 6.6.1
 _ZN29CandlestickBodyWicksAnimation11qt_metacastEPKc@Qt_6_PRIVATE_API 6.6.1
 _ZN29CandlestickBodyWicksAnimation12setStartDataERK15CandlestickData@Qt_6_PRIVATE_API 6.6.1
 _ZN29CandlestickBodyWicksAnimation16staticMetaObjectE@Qt_6_PRIVATE_API 6.6.1
 _ZN29CandlestickBodyWicksAnimation18updateCurrentValueERK8QVariant@Qt_6_PRIVATE_API 6.6.1
 _ZN29CandlestickBodyWicksAnimation5setupERK15CandlestickDataS2_@Qt_6_PRIVATE_API 6.6.1
 _ZN29CandlestickBodyWicksAnimationC1EP11CandlestickP20CandlestickAnimationiR12QEasingCurve@Qt_6_PRIVATE_API 6.6.1
 _ZN29CandlestickBodyWicksAnimationC2EP11CandlestickP20CandlestickAnimationiR12QEasingCurve@Qt_6_PRIVATE_API 6.6.1
 _ZN29CandlestickBodyWicksAnimationD0Ev@Qt_6_PRIVATE_API 6.6.1
 _ZN29CandlestickBodyWicksAnimationD1Ev@Qt_6_PRIVATE_API 6.6.1
 _ZN29CandlestickBodyWicksAnimationD2Ev@Qt_6_PRIVATE_API 6.6.1
 _ZN29HorizontalPercentBarChartItem11qt_metacallEN11QMetaObject4CallEiPPv@Qt_6_PRIVATE_API 6.6.1
 _ZN29HorizontalPercentBarChartItem11qt_metacastEPKc@Qt_6_PRIVATE_API 6.6.1
 _ZN29HorizontalPercentBarChartItem12topLeftPointEidd@Qt_6_PRIVATE_API 6.6.1
 _ZN29HorizontalPercentBarChartItem15calculateLayoutEv@Qt_6_PRIVATE_API 6.6.1
 _ZN29HorizontalPercentBarChartItem15markLabelsDirtyEP7QBarSetii@Qt_6_PRIVATE_API 6.6.1
 _ZN29HorizontalPercentBarChartItem16bottomRightPointEidd@Qt_6_PRIVATE_API 6.6.1
 _ZN29HorizontalPercentBarChartItem16initializeLayoutEiiib@Qt_6_PRIVATE_API 6.6.1
 _ZN29HorizontalPercentBarChartItem16staticMetaObjectE@Qt_6_PRIVATE_API 6.6.1
 _ZN29HorizontalPercentBarChartItem17generateLabelTextEiid@Qt_6_PRIVATE_API 6.6.1
 _ZN29HorizontalPercentBarChartItemC1EP18QAbstractBarSeriesP13QGraphicsItem@Qt_6_PRIVATE_API 6.6.1
 _ZN29HorizontalPercentBarChartItemC2EP18QAbstractBarSeriesP13QGraphicsItem@Qt_6_PRIVATE_API 6.6.1
 _ZN29HorizontalStackedBarChartItem11qt_metacallEN11QMetaObject4CallEiPPv@Qt_6_PRIVATE_API 6.6.1
 _ZN29HorizontalStackedBarChartItem11qt_metacastEPKc@Qt_6_PRIVATE_API 6.6.1
 _ZN29HorizontalStackedBarChartItem12topLeftPointEidd@Qt_6_PRIVATE_API 6.6.1
 _ZN29HorizontalStackedBarChartItem15calculateLayoutEv@Qt_6_PRIVATE_API 6.6.1
 _ZN29HorizontalStackedBarChartItem16bottomRightPointEidd@Qt_6_PRIVATE_API 6.6.1
 _ZN29HorizontalStackedBarChartItem16initializeLayoutEiiib@Qt_6_PRIVATE_API 6.6.1
 _ZN29HorizontalStackedBarChartItem16staticMetaObjectE@Qt_6_PRIVATE_API 6.6.1
 _ZN29HorizontalStackedBarChartItemC1EP18QAbstractBarSeriesP13QGraphicsItem@Qt_6_PRIVATE_API 6.6.1
 _ZN29HorizontalStackedBarChartItemC2EP18QAbstractBarSeriesP13QGraphicsItem@Qt_6_PRIVATE_API 6.6.1
 _ZN29PolarChartCategoryAxisAngular11qt_metacallEN11QMetaObject4CallEiPPv@Qt_6_PRIVATE_API 6.6.1
 _ZN29PolarChartCategoryAxisAngular11qt_metacastEPKc@Qt_6_PRIVATE_API 6.6.1
 _ZN29PolarChartCategoryAxisAngular16createAxisLabelsERK5QListIdE@Qt_6_PRIVATE_API 6.6.1
 _ZN29PolarChartCategoryAxisAngular16staticMetaObjectE@Qt_6_PRIVATE_API 6.6.1
 _ZN29PolarChartCategoryAxisAngular23handleCategoriesChangedEv@Qt_6_PRIVATE_API 6.6.1
 _ZN29PolarChartCategoryAxisAngularC1EP13QCategoryAxisP13QGraphicsItem@Qt_6_PRIVATE_API 6.6.1
 _ZN29PolarChartCategoryAxisAngularC2EP13QCategoryAxisP13QGraphicsItem@Qt_6_PRIVATE_API 6.6.1
 _ZN29PolarChartCategoryAxisAngularD0Ev@Qt_6_PRIVATE_API 6.6.1
 _ZN29PolarChartCategoryAxisAngularD1Ev@Qt_6_PRIVATE_API 6.6.1
 _ZN29PolarChartCategoryAxisAngularD2Ev@Qt_6_PRIVATE_API 6.6.1
 _ZN29PolarChartDateTimeAxisAngular11qt_metacallEN11QMetaObject4CallEiPPv@Qt_6_PRIVATE_API 6.6.1
 _ZN29PolarChartDateTimeAxisAngular11qt_metacastEPKc@Qt_6_PRIVATE_API 6.6.1
 _ZN29PolarChartDateTimeAxisAngular16createAxisLabelsERK5QListIdE@Qt_6_PRIVATE_API 6.6.1
 _ZN29PolarChartDateTimeAxisAngular16staticMetaObjectE@Qt_6_PRIVATE_API 6.6.1
 _ZN29PolarChartDateTimeAxisAngular19handleFormatChangedERK7QString@Qt_6_PRIVATE_API 6.6.1
 _ZN29PolarChartDateTimeAxisAngular22handleTickCountChangedEi@Qt_6_PRIVATE_API 6.6.1
 _ZN29PolarChartDateTimeAxisAngularC1EP13QDateTimeAxisP13QGraphicsItem@Qt_6_PRIVATE_API 6.6.1
 _ZN29PolarChartDateTimeAxisAngularC2EP13QDateTimeAxisP13QGraphicsItem@Qt_6_PRIVATE_API 6.6.1
 _ZN29PolarChartDateTimeAxisAngularD0Ev@Qt_6_PRIVATE_API 6.6.1
 _ZN29PolarChartDateTimeAxisAngularD1Ev@Qt_6_PRIVATE_API 6.6.1
 _ZN29PolarChartDateTimeAxisAngularD2Ev@Qt_6_PRIVATE_API 6.6.1
 _ZN29PolarChartLogValueAxisAngular11qt_metacallEN11QMetaObject4CallEiPPv@Qt_6_PRIVATE_API 6.6.1
 _ZN29PolarChartLogValueAxisAngular11qt_metacastEPKc@Qt_6_PRIVATE_API 6.6.1
 _ZN29PolarChartLogValueAxisAngular16createAxisLabelsERK5QListIdE@Qt_6_PRIVATE_API 6.6.1
 _ZN29PolarChartLogValueAxisAngular16staticMetaObjectE@Qt_6_PRIVATE_API 6.6.1
 _ZN29PolarChartLogValueAxisAngular17handleBaseChangedEd@Qt_6_PRIVATE_API 6.6.1
 _ZN29PolarChartLogValueAxisAngular24handleLabelFormatChangedERK7QString@Qt_6_PRIVATE_API 6.6.1
 _ZN29PolarChartLogValueAxisAngularC1EP13QLogValueAxisP13QGraphicsItem@Qt_6_PRIVATE_API 6.6.1
 _ZN29PolarChartLogValueAxisAngularC2EP13QLogValueAxisP13QGraphicsItem@Qt_6_PRIVATE_API 6.6.1
 _ZN29PolarChartLogValueAxisAngularD0Ev@Qt_6_PRIVATE_API 6.6.1
 _ZN29PolarChartLogValueAxisAngularD1Ev@Qt_6_PRIVATE_API 6.6.1
 _ZN29PolarChartLogValueAxisAngularD2Ev@Qt_6_PRIVATE_API 6.6.1
 _ZN30QCandlestickModelMapperPrivate10insertDataEii@Qt_6_PRIVATE_API 6.6.1
 _ZN30QCandlestickModelMapperPrivate10lowChangedEv@Qt_6_PRIVATE_API 6.6.1
 _ZN30QCandlestickModelMapperPrivate10removeDataEii@Qt_6_PRIVATE_API 6.6.1
 _ZN30QCandlestickModelMapperPrivate11highChangedEv@Qt_6_PRIVATE_API 6.6.1
 _ZN30QCandlestickModelMapperPrivate11openChangedEv@Qt_6_PRIVATE_API 6.6.1
 _ZN30QCandlestickModelMapperPrivate11qt_metacallEN11QMetaObject4CallEiPPv@Qt_6_PRIVATE_API 6.6.1
 _ZN30QCandlestickModelMapperPrivate11qt_metacastEPKc@Qt_6_PRIVATE_API 6.6.1
 _ZN30QCandlestickModelMapperPrivate12closeChangedEv@Qt_6_PRIVATE_API 6.6.1
 _ZN30QCandlestickModelMapperPrivate14candlestickSetE11QModelIndex@Qt_6_PRIVATE_API 6.6.1
 _ZN30QCandlestickModelMapperPrivate14modelDestroyedEv@Qt_6_PRIVATE_API 6.6.1
 _ZN30QCandlestickModelMapperPrivate15seriesDestroyedEv@Qt_6_PRIVATE_API 6.6.1
 _ZN30QCandlestickModelMapperPrivate16modelDataUpdatedE11QModelIndexS0_@Qt_6_PRIVATE_API 6.6.1
 _ZN30QCandlestickModelMapperPrivate16modelRowsRemovedE11QModelIndexii@Qt_6_PRIVATE_API 6.6.1
 _ZN30QCandlestickModelMapperPrivate16staticMetaObjectE@Qt_6_PRIVATE_API 6.6.1
 _ZN30QCandlestickModelMapperPrivate16timestampChangedEv@Qt_6_PRIVATE_API 6.6.1
 _ZN30QCandlestickModelMapperPrivate17blockModelSignalsEb@Qt_6_PRIVATE_API 6.6.1
 _ZN30QCandlestickModelMapperPrivate17modelRowsInsertedE11QModelIndexii@Qt_6_PRIVATE_API 6.6.1
 _ZN30QCandlestickModelMapperPrivate18blockSeriesSignalsEb@Qt_6_PRIVATE_API 6.6.1
 _ZN30QCandlestickModelMapperPrivate19modelColumnsRemovedE11QModelIndexii@Qt_6_PRIVATE_API 6.6.1
 _ZN30QCandlestickModelMapperPrivate20candlestickSetsAddedERK5QListIP15QCandlestickSetE@Qt_6_PRIVATE_API 6.6.1
 _ZN30QCandlestickModelMapperPrivate20modelColumnsInsertedE11QModelIndexii@Qt_6_PRIVATE_API 6.6.1
 _ZN30QCandlestickModelMapperPrivate21candlestickModelIndexEii@Qt_6_PRIVATE_API 6.6.1
 _ZN30QCandlestickModelMapperPrivate21candlestickSetChangedEv@Qt_6_PRIVATE_API 6.6.1
 _ZN30QCandlestickModelMapperPrivate21lastSetSectionChangedEv@Qt_6_PRIVATE_API 6.6.1
 _ZN30QCandlestickModelMapperPrivate22candlestickSetsRemovedERK5QListIP15QCandlestickSetE@Qt_6_PRIVATE_API 6.6.1
 _ZN30QCandlestickModelMapperPrivate22firstSetSectionChangedEv@Qt_6_PRIVATE_API 6.6.1
 _ZN30QCandlestickModelMapperPrivate22modelHeaderDataUpdatedEN2Qt11OrientationEii@Qt_6_PRIVATE_API 6.6.1
 _ZN30QCandlestickModelMapperPrivate30initializeCandlestickFromModelEv@Qt_6_PRIVATE_API 6.6.1
 _ZN30QCandlestickModelMapperPrivateC1EP23QCandlestickModelMapper@Qt_6_PRIVATE_API 6.6.1
 _ZN30QCandlestickModelMapperPrivateC2EP23QCandlestickModelMapper@Qt_6_PRIVATE_API 6.6.1
 _ZN31QCandlestickLegendMarkerPrivate11qt_metacallEN11QMetaObject4CallEiPPv@Qt_6_PRIVATE_API 6.6.1
 _ZN31QCandlestickLegendMarkerPrivate11qt_metacastEPKc@Qt_6_PRIVATE_API 6.6.1
 _ZN31QCandlestickLegendMarkerPrivate13relatedObjectEv@Qt_6_PRIVATE_API 6.6.1
 _ZN31QCandlestickLegendMarkerPrivate16staticMetaObjectE@Qt_6_PRIVATE_API 6.6.1
 _ZN31QCandlestickLegendMarkerPrivate6seriesEv@Qt_6_PRIVATE_API 6.6.1
 _ZN31QCandlestickLegendMarkerPrivate7updatedEv@Qt_6_PRIVATE_API 6.6.1
 _ZN31QCandlestickLegendMarkerPrivateC1EP24QCandlestickLegendMarkerP18QCandlestickSeriesP7QLegend@Qt_6_PRIVATE_API 6.6.1
 _ZN31QCandlestickLegendMarkerPrivateC2EP24QCandlestickLegendMarkerP18QCandlestickSeriesP7QLegend@Qt_6_PRIVATE_API 6.6.1
 _ZN31QCandlestickLegendMarkerPrivateD0Ev@Qt_6_PRIVATE_API 6.6.1
 _ZN31QCandlestickLegendMarkerPrivateD1Ev@Qt_6_PRIVATE_API 6.6.1
 _ZN31QCandlestickLegendMarkerPrivateD2Ev@Qt_6_PRIVATE_API 6.6.1
 _ZN34QHorizontalPercentBarSeriesPrivate16initializeDomainEv@Qt_6_PRIVATE_API 6.6.1
 _ZN34QHorizontalPercentBarSeriesPrivate18initializeGraphicsEP13QGraphicsItem@Qt_6_PRIVATE_API 6.6.1
 _ZN34QHorizontalPercentBarSeriesPrivateC1EP27QHorizontalPercentBarSeries@Qt_6_PRIVATE_API 6.6.1
 _ZN34QHorizontalPercentBarSeriesPrivateC2EP27QHorizontalPercentBarSeries@Qt_6_PRIVATE_API 6.6.1
 _ZN34QHorizontalStackedBarSeriesPrivate16initializeDomainEv@Qt_6_PRIVATE_API 6.6.1
 _ZN34QHorizontalStackedBarSeriesPrivate18initializeGraphicsEP13QGraphicsItem@Qt_6_PRIVATE_API 6.6.1
 _ZN34QHorizontalStackedBarSeriesPrivateC1EP27QHorizontalStackedBarSeries@Qt_6_PRIVATE_API 6.6.1
 _ZN34QHorizontalStackedBarSeriesPrivateC2EP27QHorizontalStackedBarSeries@Qt_6_PRIVATE_API 6.6.1
 _ZN3Bar11qt_metacallEN11QMetaObject4CallEiPPv@Qt_6_PRIVATE_API 6.6.1
 _ZN3Bar11qt_metacastEPKc@Qt_6_PRIVATE_API 6.6.1
 _ZN3Bar13doubleClickedEiP7QBarSet@Qt_6_PRIVATE_API 6.6.1
 _ZN3Bar15hoverEnterEventEP24QGraphicsSceneHoverEvent@Qt_6_PRIVATE_API 6.6.1
 _ZN3Bar15hoverLeaveEventEP24QGraphicsSceneHoverEvent@Qt_6_PRIVATE_API 6.6.1
 _ZN3Bar15mousePressEventEP24QGraphicsSceneMouseEvent@Qt_6_PRIVATE_API 6.6.1
 _ZN3Bar16staticMetaObjectE@Qt_6_PRIVATE_API 6.6.1
 _ZN3Bar17mouseReleaseEventEP24QGraphicsSceneMouseEvent@Qt_6_PRIVATE_API 6.6.1
 _ZN3Bar21mouseDoubleClickEventEP24QGraphicsSceneMouseEvent@Qt_6_PRIVATE_API 6.6.1
 _ZN3Bar5paintEP8QPainterPK24QStyleOptionGraphicsItemP7QWidget@Qt_6_PRIVATE_API 6.6.1
 _ZN3Bar7clickedEiP7QBarSet@Qt_6_PRIVATE_API 6.6.1
 _ZN3Bar7hoveredEbiP7QBarSet@Qt_6_PRIVATE_API 6.6.1
 _ZN3Bar7pressedEiP7QBarSet@Qt_6_PRIVATE_API 6.6.1
 _ZN3Bar8releasedEiP7QBarSet@Qt_6_PRIVATE_API 6.6.1
 _ZN3BarC1EP7QBarSetP13QGraphicsItem@Qt_6_PRIVATE_API 6.6.1
 _ZN3BarC2EP7QBarSetP13QGraphicsItem@Qt_6_PRIVATE_API 6.6.1
 _ZN3BarD0Ev@Qt_6_PRIVATE_API 6.6.1
 _ZN3BarD1Ev@Qt_6_PRIVATE_API 6.6.1
 _ZN3BarD2Ev@Qt_6_PRIVATE_API 6.6.1
 _ZN6QChart10mapToValueERK7QPointFP15QAbstractSeries@Qt_6 6.6.1
 _ZN6QChart10removeAxisEP13QAbstractAxis@Qt_6 6.6.1
 _ZN6QChart10setMarginsERK8QMargins@Qt_6 6.6.1
 _ZN6QChart11qt_metacallEN11QMetaObject4CallEiPPv@Qt_6 6.6.1
 _ZN6QChart11qt_metacastEPKc@Qt_6 6.6.1
 _ZN6QChart11setPlotAreaERK6QRectF@Qt_6 6.6.1
 _ZN6QChart12removeSeriesEP15QAbstractSeries@Qt_6 6.6.1
 _ZN6QChart12setTitleFontERK5QFont@Qt_6 6.6.1
 _ZN6QChart13mapToPositionERK7QPointFP15QAbstractSeries@Qt_6 6.6.1
 _ZN6QChart13setTitleBrushERK6QBrush@Qt_6 6.6.1
 _ZN6QChart15plotAreaChangedERK6QRectF@Qt_6 6.6.1
 _ZN6QChart15removeAllSeriesEv@Qt_6 6.6.1
 _ZN6QChart16setBackgroundPenERK4QPen@Qt_6 6.6.1
 _ZN6QChart16staticMetaObjectE@Qt_6 6.6.1
 _ZN6QChart17createDefaultAxesEv@Qt_6 6.6.1
 _ZN6QChart18setBackgroundBrushERK6QBrush@Qt_6 6.6.1
 _ZN6QChart18setLocalizeNumbersEb@Qt_6 6.6.1
 _ZN6QChart19setAnimationOptionsE6QFlagsINS_15AnimationOptionEE@Qt_6 6.6.1
 _ZN6QChart20setAnimationDurationEi@Qt_6 6.6.1
 _ZN6QChart20setBackgroundVisibleEb@Qt_6 6.6.1
 _ZN6QChart20setDropShadowEnabledEb@Qt_6 6.6.1
 _ZN6QChart22setBackgroundRoundnessEd@Qt_6 6.6.1
 _ZN6QChart23setAnimationEasingCurveERK12QEasingCurve@Qt_6 6.6.1
 _ZN6QChart24setPlotAreaBackgroundPenERK4QPen@Qt_6 6.6.1
 _ZN6QChart26setPlotAreaBackgroundBrushERK6QBrush@Qt_6 6.6.1
 _ZN6QChart28setPlotAreaBackgroundVisibleEb@Qt_6 6.6.1
 _ZN6QChart4zoomEd@Qt_6 6.6.1
 _ZN6QChart6scrollEdd@Qt_6 6.6.1
 _ZN6QChart6zoomInERK6QRectF@Qt_6 6.6.1
 _ZN6QChart6zoomInEv@Qt_6 6.6.1
 _ZN6QChart7addAxisEP13QAbstractAxis6QFlagsIN2Qt13AlignmentFlagEE@Qt_6 6.6.1
 _ZN6QChart7zoomOutEv@Qt_6 6.6.1
 _ZN6QChart8isZoomedEv@Qt_6 6.6.1
 _ZN6QChart8setAxisXEP13QAbstractAxisP15QAbstractSeries@Qt_6 6.6.1
 _ZN6QChart8setAxisYEP13QAbstractAxisP15QAbstractSeries@Qt_6 6.6.1
 _ZN6QChart8setThemeENS_10ChartThemeE@Qt_6_PRIVATE_API 6.6.1
 _ZN6QChart8setTitleERK7QString@Qt_6 6.6.1
 _ZN6QChart9addSeriesEP15QAbstractSeries@Qt_6 6.6.1
 _ZN6QChart9setLocaleERK7QLocale@Qt_6 6.6.1
 _ZN6QChart9zoomResetEv@Qt_6 6.6.1
 _ZN6QChartC1ENS_9ChartTypeEP13QGraphicsItem6QFlagsIN2Qt10WindowTypeEE@Qt_6 6.6.1
 _ZN6QChartC1EP13QGraphicsItem6QFlagsIN2Qt10WindowTypeEE@Qt_6 6.6.1
 _ZN6QChartC2ENS_9ChartTypeEP13QGraphicsItem6QFlagsIN2Qt10WindowTypeEE@Qt_6 6.6.1
 _ZN6QChartC2EP13QGraphicsItem6QFlagsIN2Qt10WindowTypeEE@Qt_6 6.6.1
 _ZN6QChartD0Ev@Qt_6 6.6.1
 _ZN6QChartD1Ev@Qt_6 6.6.1
 _ZN6QChartD2Ev@Qt_6 6.6.1
 _ZN7QBarSet10labelColorEv@Qt_6 6.6.1
 _ZN7QBarSet10penChangedEv@Qt_6 6.6.1
 _ZN7QBarSet10selectBarsERK5QListIiE@Qt_6 6.6.1
 _ZN7QBarSet11borderColorEv@Qt_6 6.6.1
 _ZN7QBarSet11deselectBarEi@Qt_6 6.6.1
 _ZN7QBarSet11qt_metacallEN11QMetaObject4CallEiPPv@Qt_6 6.6.1
 _ZN7QBarSet11qt_metacastEPKc@Qt_6 6.6.1
 _ZN7QBarSet11valuesAddedEii@Qt_6 6.6.1
 _ZN7QBarSet12brushChangedEv@Qt_6 6.6.1
 _ZN7QBarSet12colorChangedE6QColor@Qt_6 6.6.1
 _ZN7QBarSet12deselectBarsERK5QListIiE@Qt_6 6.6.1
 _ZN7QBarSet12labelChangedEv@Qt_6 6.6.1
 _ZN7QBarSet12setLabelFontERK5QFont@Qt_6 6.6.1
 _ZN7QBarSet12valueChangedEi@Qt_6 6.6.1
 _ZN7QBarSet13doubleClickedEi@Qt_6 6.6.1
 _ZN7QBarSet13selectAllBarsEv@Qt_6 6.6.1
 _ZN7QBarSet13setLabelBrushERK6QBrush@Qt_6 6.6.1
 _ZN7QBarSet13setLabelColorE6QColor@Qt_6 6.6.1
 _ZN7QBarSet13valuesRemovedEii@Qt_6 6.6.1
 _ZN7QBarSet14setBarSelectedEib@Qt_6 6.6.1
 _ZN7QBarSet14setBorderColorE6QColor@Qt_6 6.6.1
 _ZN7QBarSet15deselectAllBarsEv@Qt_6 6.6.1
 _ZN7QBarSet15toggleSelectionERK5QListIiE@Qt_6 6.6.1
 _ZN7QBarSet16labelFontChangedEv@Qt_6 6.6.1
 _ZN7QBarSet16setSelectedColorERK6QColor@Qt_6 6.6.1
 _ZN7QBarSet16staticMetaObjectE@Qt_6 6.6.1
 _ZN7QBarSet17labelBrushChangedEv@Qt_6 6.6.1
 _ZN7QBarSet17labelColorChangedE6QColor@Qt_6 6.6.1
 _ZN7QBarSet18borderColorChangedE6QColor@Qt_6 6.6.1
 _ZN7QBarSet19selectedBarsChangedERK5QListIiE@Qt_6 6.6.1
 _ZN7QBarSet20selectedColorChangedERK6QColor@Qt_6 6.6.1
 _ZN7QBarSet5colorEv@Qt_6 6.6.1
 _ZN7QBarSet6appendERK5QListIdE@Qt_6 6.6.1
 _ZN7QBarSet6appendEd@Qt_6 6.6.1
 _ZN7QBarSet6insertEid@Qt_6 6.6.1
 _ZN7QBarSet6removeEii@Qt_6 6.6.1
 _ZN7QBarSet6setPenERK4QPen@Qt_6 6.6.1
 _ZN7QBarSet7clickedEi@Qt_6 6.6.1
 _ZN7QBarSet7hoveredEbi@Qt_6 6.6.1
 _ZN7QBarSet7pressedEi@Qt_6 6.6.1
 _ZN7QBarSet7replaceEid@Qt_6 6.6.1
 _ZN7QBarSet8releasedEi@Qt_6 6.6.1
 _ZN7QBarSet8setBrushERK6QBrush@Qt_6 6.6.1
 _ZN7QBarSet8setColorE6QColor@Qt_6 6.6.1
 _ZN7QBarSet8setLabelE7QString@Qt_6 6.6.1
 _ZN7QBarSet9selectBarEi@Qt_6 6.6.1
 _ZN7QBarSetC1E7QStringP7QObject@Qt_6 6.6.1
 _ZN7QBarSetC2E7QStringP7QObject@Qt_6 6.6.1
 _ZN7QBarSetD0Ev@Qt_6 6.6.1
 _ZN7QBarSetD1Ev@Qt_6 6.6.1
 _ZN7QBarSetD2Ev@Qt_6 6.6.1
 _ZN7QBarSetlsERKd@Qt_6 6.6.1
 _ZN7QBoxSet10penChangedEv@Qt_6 6.6.1
 _ZN7QBoxSet11qt_metacallEN11QMetaObject4CallEiPPv@Qt_6 6.6.1
 _ZN7QBoxSet11qt_metacastEPKc@Qt_6 6.6.1
 _ZN7QBoxSet12brushChangedEv@Qt_6 6.6.1
 _ZN7QBoxSet12valueChangedEi@Qt_6 6.6.1
 _ZN7QBoxSet13doubleClickedEv@Qt_6 6.6.1
 _ZN7QBoxSet13valuesChangedEv@Qt_6 6.6.1
 _ZN7QBoxSet16staticMetaObjectE@Qt_6 6.6.1
 _ZN7QBoxSet5clearEv@Qt_6 6.6.1
 _ZN7QBoxSet6appendERK5QListIdE@Qt_6 6.6.1
 _ZN7QBoxSet6appendEd@Qt_6 6.6.1
 _ZN7QBoxSet6setPenERK4QPen@Qt_6 6.6.1
 _ZN7QBoxSet7clearedEv@Qt_6 6.6.1
 _ZN7QBoxSet7clickedEv@Qt_6 6.6.1
 _ZN7QBoxSet7hoveredEb@Qt_6 6.6.1
 _ZN7QBoxSet7pressedEv@Qt_6 6.6.1
 _ZN7QBoxSet8releasedEv@Qt_6 6.6.1
 _ZN7QBoxSet8setBrushERK6QBrush@Qt_6 6.6.1
 _ZN7QBoxSet8setLabelE7QString@Qt_6 6.6.1
 _ZN7QBoxSet8setValueEid@Qt_6 6.6.1
 _ZN7QBoxSetC1E7QStringP7QObject@Qt_6 6.6.1
 _ZN7QBoxSetC1Eddddd7QStringP7QObject@Qt_6 6.6.1
 _ZN7QBoxSetC2E7QStringP7QObject@Qt_6 6.6.1
 _ZN7QBoxSetC2Eddddd7QStringP7QObject@Qt_6 6.6.1
 _ZN7QBoxSetD0Ev@Qt_6 6.6.1
 _ZN7QBoxSetD1Ev@Qt_6 6.6.1
 _ZN7QBoxSetD2Ev@Qt_6 6.6.1
 _ZN7QBoxSetlsERKd@Qt_6 6.6.1
 _ZN7QLegend11borderColorEv@Qt_6 6.6.1
 _ZN7QLegend11fontChangedE5QFont@Qt_6 6.6.1
 _ZN7QLegend11qt_metacallEN11QMetaObject4CallEiPPv@Qt_6 6.6.1
 _ZN7QLegend11qt_metacastEPKc@Qt_6 6.6.1
 _ZN7QLegend12colorChangedE6QColor@Qt_6 6.6.1
 _ZN7QLegend12setAlignmentE6QFlagsIN2Qt13AlignmentFlagEE@Qt_6 6.6.1
 _ZN7QLegend13attachToChartEv@Qt_6 6.6.1
 _ZN7QLegend13setLabelBrushERK6QBrush@Qt_6 6.6.1
 _ZN7QLegend13setLabelColorE6QColor@Qt_6 6.6.1
 _ZN7QLegend14reverseMarkersEv@Qt_6 6.6.1
 _ZN7QLegend14setBorderColorE6QColor@Qt_6 6.6.1
 _ZN7QLegend14setInteractiveEb@Qt_6 6.6.1
 _ZN7QLegend14setMarkerShapeENS_11MarkerShapeE@Qt_6 6.6.1
 _ZN7QLegend15detachFromChartEv@Qt_6 6.6.1
 _ZN7QLegend15setShowToolTipsEb@Qt_6 6.6.1
 _ZN7QLegend16staticMetaObjectE@Qt_6 6.6.1
 _ZN7QLegend17isAttachedToChartEv@Qt_6 6.6.1
 _ZN7QLegend17labelColorChangedE6QColor@Qt_6 6.6.1
 _ZN7QLegend17setReverseMarkersEb@Qt_6 6.6.1
 _ZN7QLegend18borderColorChangedE6QColor@Qt_6 6.6.1
 _ZN7QLegend18interactiveChangedEb@Qt_6 6.6.1
 _ZN7QLegend18markerShapeChangedENS_11MarkerShapeE@Qt_6 6.6.1
 _ZN7QLegend19showToolTipsChangedEb@Qt_6 6.6.1
 _ZN7QLegend20setBackgroundVisibleEb@Qt_6 6.6.1
 _ZN7QLegend21reverseMarkersChangedEb@Qt_6 6.6.1
 _ZN7QLegend22attachedToChartChangedEb@Qt_6 6.6.1
 _ZN7QLegend24backgroundVisibleChangedEb@Qt_6 6.6.1
 _ZN7QLegend5colorEv@Qt_6 6.6.1
 _ZN7QLegend5paintEP8QPainterPK24QStyleOptionGraphicsItemP7QWidget@Qt_6 6.6.1
 _ZN7QLegend6setPenERK4QPen@Qt_6 6.6.1
 _ZN7QLegend7setFontERK5QFont@Qt_6 6.6.1
 _ZN7QLegend8setBrushERK6QBrush@Qt_6 6.6.1
 _ZN7QLegend8setColorE6QColor@Qt_6 6.6.1
 _ZN7QLegend9hideEventEP10QHideEvent@Qt_6 6.6.1
 _ZN7QLegend9showEventEP10QShowEvent@Qt_6 6.6.1
 _ZN7QLegendC1EP6QChart@Qt_6 6.6.1
 _ZN7QLegendC2EP6QChart@Qt_6 6.6.1
 _ZN7QLegendD0Ev@Qt_6 6.6.1
 _ZN7QLegendD1Ev@Qt_6 6.6.1
 _ZN7QLegendD2Ev@Qt_6 6.6.1
 _ZN7XYChart11qt_metacallEN11QMetaObject4CallEiPPv@Qt_6_PRIVATE_API 6.6.1
 _ZN7XYChart11qt_metacastEPKc@Qt_6_PRIVATE_API 6.6.1
 _ZN7XYChart11updateChartERK5QListI7QPointFES4_i@Qt_6_PRIVATE_API 6.6.1
 _ZN7XYChart12setAnimationEP11XYAnimation@Qt_6_PRIVATE_API 6.6.1
 _ZN7XYChart13doubleClickedERK7QPointF@Qt_6_PRIVATE_API 6.6.1
 _ZN7XYChart13updateGlChartEv@Qt_6_PRIVATE_API 6.6.1
 _ZN7XYChart14refreshGlChartEv@Qt_6_PRIVATE_API 6.6.1
 _ZN7XYChart16handlePointAddedEi@Qt_6_PRIVATE_API 6.6.1
 _ZN7XYChart16staticMetaObjectE@Qt_6_PRIVATE_API 6.6.1
 _ZN7XYChart17setGeometryPointsERK5QListI7QPointFE@Qt_6_PRIVATE_API 6.6.1
 _ZN7XYChart18handlePointRemovedEi@Qt_6_PRIVATE_API 6.6.1
 _ZN7XYChart19handleDomainUpdatedEv@Qt_6_PRIVATE_API 6.6.1
 _ZN7XYChart19handlePointReplacedEi@Qt_6_PRIVATE_API 6.6.1
 _ZN7XYChart19handlePointsRemovedEii@Qt_6_PRIVATE_API 6.6.1
 _ZN7XYChart19handleSeriesUpdatedEv@Qt_6_PRIVATE_API 6.6.1
 _ZN7XYChart19matchForLightMarkerERK7QPointF@Qt_6_PRIVATE_API 6.6.1
 _ZN7XYChart19offGridStatusVectorEv@Qt_6_PRIVATE_API 6.6.1
 _ZN7XYChart20handlePointsReplacedEv@Qt_6_PRIVATE_API 6.6.1
 _ZN7XYChart7clickedERK7QPointF@Qt_6_PRIVATE_API 6.6.1
 _ZN7XYChart7hoveredERK7QPointFb@Qt_6_PRIVATE_API 6.6.1
 _ZN7XYChart7pressedERK7QPointF@Qt_6_PRIVATE_API 6.6.1
 _ZN7XYChart8releasedERK7QPointF@Qt_6_PRIVATE_API 6.6.1
 _ZN7XYChart8setDirtyEb@Qt_6_PRIVATE_API 6.6.1
 _ZN7XYChartC1EP9QXYSeriesP13QGraphicsItem@Qt_6_PRIVATE_API 6.6.1
 _ZN7XYChartC2EP9QXYSeriesP13QGraphicsItem@Qt_6_PRIVATE_API 6.6.1
 _ZN8Scroller10lowerSpeedER7QPointFd@Qt_6_PRIVATE_API 6.6.1
 _ZN8Scroller10scrollTickEv@Qt_6_PRIVATE_API 6.6.1
 _ZN8Scroller10stopTickerEv@Qt_6_PRIVATE_API 6.6.1
 _ZN8Scroller11startTickerEi@Qt_6_PRIVATE_API 6.6.1
 _ZN8Scroller20handleMouseMoveEventEP24QGraphicsSceneMouseEvent@Qt_6_PRIVATE_API 6.6.1
 _ZN8Scroller21handleMousePressEventEP24QGraphicsSceneMouseEvent@Qt_6_PRIVATE_API 6.6.1
 _ZN8Scroller23handleMouseReleaseEventEP24QGraphicsSceneMouseEvent@Qt_6_PRIVATE_API 6.6.1
 _ZN8Scroller4moveERK7QPointF@Qt_6_PRIVATE_API 6.6.1
 _ZN8Scroller8scrollToERK7QPointF@Qt_6_PRIVATE_API 6.6.1
 _ZN8ScrollerC1Ev@Qt_6_PRIVATE_API 6.6.1
 _ZN8ScrollerC2Ev@Qt_6_PRIVATE_API 6.6.1
 _ZN8ScrollerD0Ev@Qt_6_PRIVATE_API 6.6.1
 _ZN8ScrollerD1Ev@Qt_6_PRIVATE_API 6.6.1
 _ZN8ScrollerD2Ev@Qt_6_PRIVATE_API 6.6.1
 _ZN8XYDomain11qt_metacallEN11QMetaObject4CallEiPPv@Qt_6_PRIVATE_API 6.6.1
 _ZN8XYDomain11qt_metacastEPKc@Qt_6_PRIVATE_API 6.6.1
 _ZN8XYDomain16staticMetaObjectE@Qt_6_PRIVATE_API 6.6.1
 _ZN8XYDomain4moveEdd@Qt_6_PRIVATE_API 6.6.1
 _ZN8XYDomain6zoomInERK6QRectF@Qt_6_PRIVATE_API 6.6.1
 _ZN8XYDomain7zoomOutERK6QRectF@Qt_6_PRIVATE_API 6.6.1
 _ZN8XYDomain8setRangeEdddd@Qt_6_PRIVATE_API 6.6.1
 _ZN8XYDomainC1EP7QObject@Qt_6_PRIVATE_API 6.6.1
 _ZN8XYDomainC2EP7QObject@Qt_6_PRIVATE_API 6.6.1
 _ZN8XYDomainD0Ev@Qt_6_PRIVATE_API 6.6.1
 _ZN8XYDomainD1Ev@Qt_6_PRIVATE_API 6.6.1
 _ZN8XYDomainD2Ev@Qt_6_PRIVATE_API 6.6.1
 _ZN9ChartItem11qt_metacallEN11QMetaObject4CallEiPPv@Qt_6_PRIVATE_API 6.6.1
 _ZN9ChartItem11qt_metacastEPKc@Qt_6_PRIVATE_API 6.6.1
 _ZN9ChartItem16staticMetaObjectE@Qt_6_PRIVATE_API 6.6.1
 _ZN9ChartItem19handleDomainUpdatedEv@Qt_6_PRIVATE_API 6.6.1
 _ZN9ChartItem7cleanupEv@Qt_6_PRIVATE_API 6.6.1
 _ZN9ChartItemC1EP22QAbstractSeriesPrivateP13QGraphicsItem@Qt_6_PRIVATE_API 6.6.1
 _ZN9ChartItemC2EP22QAbstractSeriesPrivateP13QGraphicsItem@Qt_6_PRIVATE_API 6.6.1
 _ZN9QPieSlice10labelColorEv@Qt_6 6.6.1
 _ZN9QPieSlice10penChangedEv@Qt_6 6.6.1
 _ZN9QPieSlice11borderColorEv@Qt_6 6.6.1
 _ZN9QPieSlice11borderWidthEv@Qt_6 6.6.1
 _ZN9QPieSlice11qt_metacallEN11QMetaObject4CallEiPPv@Qt_6 6.6.1
 _ZN9QPieSlice11qt_metacastEPKc@Qt_6 6.6.1
 _ZN9QPieSlice11setExplodedEb@Qt_6 6.6.1
 _ZN9QPieSlice12brushChangedEv@Qt_6 6.6.1
 _ZN9QPieSlice12colorChangedEv@Qt_6 6.6.1
 _ZN9QPieSlice12labelChangedEv@Qt_6 6.6.1
 _ZN9QPieSlice12setLabelFontERK5QFont@Qt_6 6.6.1
 _ZN9QPieSlice12valueChangedEv@Qt_6 6.6.1
 _ZN9QPieSlice13doubleClickedEv@Qt_6 6.6.1
 _ZN9QPieSlice13labelPositionEv@Qt_6 6.6.1
 _ZN9QPieSlice13setLabelBrushERK6QBrush@Qt_6 6.6.1
 _ZN9QPieSlice13setLabelColorE6QColor@Qt_6 6.6.1
 _ZN9QPieSlice14setBorderColorE6QColor@Qt_6 6.6.1
 _ZN9QPieSlice14setBorderWidthEi@Qt_6 6.6.1
 _ZN9QPieSlice15setLabelVisibleEb@Qt_6 6.6.1
 _ZN9QPieSlice16angleSpanChangedEv@Qt_6 6.6.1
 _ZN9QPieSlice16labelFontChangedEv@Qt_6 6.6.1
 _ZN9QPieSlice16setLabelPositionENS_13LabelPositionE@Qt_6 6.6.1
 _ZN9QPieSlice16staticMetaObjectE@Qt_6 6.6.1
 _ZN9QPieSlice17labelBrushChangedEv@Qt_6 6.6.1
 _ZN9QPieSlice17labelColorChangedEv@Qt_6 6.6.1
 _ZN9QPieSlice17percentageChangedEv@Qt_6 6.6.1
 _ZN9QPieSlice17startAngleChangedEv@Qt_6 6.6.1
 _ZN9QPieSlice18borderColorChangedEv@Qt_6 6.6.1
 _ZN9QPieSlice18borderWidthChangedEv@Qt_6 6.6.1
 _ZN9QPieSlice19labelVisibleChangedEv@Qt_6 6.6.1
 _ZN9QPieSlice23setLabelArmLengthFactorEd@Qt_6 6.6.1
 _ZN9QPieSlice24setExplodeDistanceFactorEd@Qt_6 6.6.1
 _ZN9QPieSlice5colorEv@Qt_6 6.6.1
 _ZN9QPieSlice6setPenERK4QPen@Qt_6 6.6.1
 _ZN9QPieSlice7clickedEv@Qt_6 6.6.1
 _ZN9QPieSlice7hoveredEb@Qt_6 6.6.1
 _ZN9QPieSlice7pressedEv@Qt_6 6.6.1
 _ZN9QPieSlice8releasedEv@Qt_6 6.6.1
 _ZN9QPieSlice8setBrushERK6QBrush@Qt_6 6.6.1
 _ZN9QPieSlice8setColorE6QColor@Qt_6 6.6.1
 _ZN9QPieSlice8setLabelE7QString@Qt_6 6.6.1
 _ZN9QPieSlice8setValueEd@Qt_6 6.6.1
 _ZN9QPieSliceC1E7QStringdP7QObject@Qt_6 6.6.1
 _ZN9QPieSliceC1EP7QObject@Qt_6 6.6.1
 _ZN9QPieSliceC2E7QStringdP7QObject@Qt_6 6.6.1
 _ZN9QPieSliceC2EP7QObject@Qt_6 6.6.1
 _ZN9QPieSliceD0Ev@Qt_6 6.6.1
 _ZN9QPieSliceD1Ev@Qt_6 6.6.1
 _ZN9QPieSliceD2Ev@Qt_6 6.6.1
 _ZN9QXYSeries10penChangedERK4QPen@Qt_6 6.6.1
 _ZN9QXYSeries10pointAddedEi@Qt_6 6.6.1
 _ZN9QXYSeries11qt_metacallEN11QMetaObject4CallEiPPv@Qt_6 6.6.1
 _ZN9QXYSeries11qt_metacastEPKc@Qt_6 6.6.1
 _ZN9QXYSeries11selectPointEi@Qt_6 6.6.1
 _ZN9QXYSeries12colorChangedE6QColor@Qt_6 6.6.1
 _ZN9QXYSeries12pointRemovedEi@Qt_6 6.6.1
 _ZN9QXYSeries12removePointsEii@Qt_6 6.6.1
 _ZN9QXYSeries12selectPointsERK5QListIiE@Qt_6 6.6.1
 _ZN9QXYSeries13deselectPointEi@Qt_6 6.6.1
 _ZN9QXYSeries13doubleClickedERK7QPointF@Qt_6 6.6.1
 _ZN9QXYSeries13pointReplacedEi@Qt_6 6.6.1
 _ZN9QXYSeries13pointsRemovedEii@Qt_6 6.6.1
 _ZN9QXYSeries13setMarkerSizeEd@Qt_6 6.6.1
 _ZN9QXYSeries14deselectPointsERK5QListIiE@Qt_6 6.6.1
 _ZN9QXYSeries14pointsReplacedEv@Qt_6 6.6.1
 _ZN9QXYSeries14setLightMarkerERK6QImage@Qt_6 6.6.1
 _ZN9QXYSeries15isPointSelectedEi@Qt_6 6.6.1
 _ZN9QXYSeries15selectAllPointsEv@Qt_6 6.6.1
 _ZN9QXYSeries15toggleSelectionERK5QListIiE@Qt_6 6.6.1
 _ZN9QXYSeries16setPointSelectedEib@Qt_6 6.6.1
 _ZN9QXYSeries16setPointsVisibleEb@Qt_6 6.6.1
 _ZN9QXYSeries16setSelectedColorERK6QColor@Qt_6 6.6.1
 _ZN9QXYSeries16staticMetaObjectE@Qt_6 6.6.1
 _ZN9QXYSeries17deselectAllPointsEv@Qt_6 6.6.1
 _ZN9QXYSeries17markerSizeChangedEd@Qt_6 6.6.1
 _ZN9QXYSeries17setBestFitLinePenERK4QPen@Qt_6 6.6.1
 _ZN9QXYSeries18lightMarkerChangedERK6QImage@Qt_6 6.6.1
 _ZN9QXYSeries18setPointLabelsFontERK5QFont@Qt_6 6.6.1
 _ZN9QXYSeries19setBestFitLineColorERK6QColor@Qt_6 6.6.1
 _ZN9QXYSeries19setPointLabelsColorERK6QColor@Qt_6 6.6.1
 _ZN9QXYSeries20selectedColorChangedERK6QColor@Qt_6 6.6.1
 _ZN9QXYSeries20setPointLabelsFormatERK7QString@Qt_6 6.6.1
 _ZN9QXYSeries21bestFitLinePenChangedERK4QPen@Qt_6 6.6.1
 _ZN9QXYSeries21selectedPointsChangedEv@Qt_6 6.6.1
 _ZN9QXYSeries21setBestFitLineVisibleEb@Qt_6 6.6.1
 _ZN9QXYSeries21setPointConfigurationEiNS_18PointConfigurationERK8QVariant@Qt_6 6.6.1
 _ZN9QXYSeries21setPointConfigurationEiRK5QHashINS_18PointConfigurationE8QVariantE@Qt_6 6.6.1
 _ZN9QXYSeries21setPointLabelsVisibleEb@Qt_6 6.6.1
 _ZN9QXYSeries22pointLabelsFontChangedERK5QFont@Qt_6 6.6.1
 _ZN9QXYSeries22setPointLabelsClippingEb@Qt_6 6.6.1
 _ZN9QXYSeries22setPointsConfigurationERK5QHashIiS0_INS_18PointConfigurationE8QVariantEE@Qt_6 6.6.1
 _ZN9QXYSeries22setSelectedLightMarkerERK6QImage@Qt_6 6.6.1
 _ZN9QXYSeries23bestFitLineColorChangedERK6QColor@Qt_6 6.6.1
 _ZN9QXYSeries23clearPointConfigurationEi@Qt_6 6.6.1
 _ZN9QXYSeries23clearPointConfigurationEiNS_18PointConfigurationE@Qt_6 6.6.1
 _ZN9QXYSeries23pointLabelsColorChangedERK6QColor@Qt_6 6.6.1
 _ZN9QXYSeries24clearPointsConfigurationENS_18PointConfigurationE@Qt_6 6.6.1
 _ZN9QXYSeries24clearPointsConfigurationEv@Qt_6 6.6.1
 _ZN9QXYSeries24pointLabelsFormatChangedERK7QString@Qt_6 6.6.1
 _ZN9QXYSeries26pointLabelsClippingChangedEb@Qt_6 6.6.1
 _ZN9QXYSeries26pointsConfigurationChangedERK5QHashIiS0_INS_18PointConfigurationE8QVariantEE@Qt_6 6.6.1
 _ZN9QXYSeries26selectedLightMarkerChangedERK6QImage@Qt_6 6.6.1
 _ZN9QXYSeries28bestFitLineVisibilityChangedEb@Qt_6 6.6.1
 _ZN9QXYSeries28pointLabelsVisibilityChangedEb@Qt_6 6.6.1
 _ZN9QXYSeries5clearEv@Qt_6 6.6.1
 _ZN9QXYSeries6appendERK5QListI7QPointFE@Qt_6 6.6.1
 _ZN9QXYSeries6appendERK7QPointF@Qt_6 6.6.1
 _ZN9QXYSeries6appendEdd@Qt_6 6.6.1
 _ZN9QXYSeries6insertEiRK7QPointF@Qt_6 6.6.1
 _ZN9QXYSeries6removeERK7QPointF@Qt_6 6.6.1
 _ZN9QXYSeries6removeEdd@Qt_6 6.6.1
 _ZN9QXYSeries6removeEi@Qt_6 6.6.1
 _ZN9QXYSeries6setPenERK4QPen@Qt_6 6.6.1
 _ZN9QXYSeries6sizeByERK5QListIdEdd@Qt_6 6.6.1
 _ZN9QXYSeries7clickedERK7QPointF@Qt_6 6.6.1
 _ZN9QXYSeries7colorByERK5QListIdERK15QLinearGradient@Qt_6 6.6.1
 _ZN9QXYSeries7hoveredERK7QPointFb@Qt_6 6.6.1
 _ZN9QXYSeries7pressedERK7QPointF@Qt_6 6.6.1
 _ZN9QXYSeries7replaceERK5QListI7QPointFE@Qt_6 6.6.1
 _ZN9QXYSeries7replaceERK7QPointFS2_@Qt_6 6.6.1
 _ZN9QXYSeries7replaceEdddd@Qt_6 6.6.1
 _ZN9QXYSeries7replaceEiRK7QPointF@Qt_6 6.6.1
 _ZN9QXYSeries7replaceEidd@Qt_6 6.6.1
 _ZN9QXYSeries8releasedERK7QPointF@Qt_6 6.6.1
 _ZN9QXYSeries8setBrushERK6QBrush@Qt_6 6.6.1
 _ZN9QXYSeries8setColorERK6QColor@Qt_6 6.6.1
 _ZN9QXYSeriesC1ER16QXYSeriesPrivateP7QObject@Qt_6_PRIVATE_API 6.6.1
 _ZN9QXYSeriesC2ER16QXYSeriesPrivateP7QObject@Qt_6_PRIVATE_API 6.6.1
 _ZN9QXYSeriesD0Ev@Qt_6 6.6.1
 _ZN9QXYSeriesD1Ev@Qt_6 6.6.1
 _ZN9QXYSeriesD2Ev@Qt_6 6.6.1
 _ZN9QXYSerieslsERK5QListI7QPointFE@Qt_6 6.6.1
 _ZN9QXYSerieslsERK7QPointF@Qt_6 6.6.1
 _ZNK10ChartTitle4textEv@Qt_6_PRIVATE_API 6.6.1
 _ZNK10ChartTitle8sizeHintEN2Qt8SizeHintERK6QSizeF@Qt_6_PRIVATE_API 6.6.1
 _ZNK10QBarSeries10metaObjectEv@Qt_6 6.6.1
 _ZNK10QBarSeries4typeEv@Qt_6 6.6.1
 _ZNK10QChartView10metaObjectEv@Qt_6 6.6.1
 _ZNK10QChartView10rubberBandEv@Qt_6 6.6.1
 _ZNK10QChartView5chartEv@Qt_6 6.6.1
 _ZNK10QColorAxis10metaObjectEv@Qt_6 6.6.1
 _ZNK10QColorAxis3maxEv@Qt_6 6.6.1
 _ZNK10QColorAxis3minEv@Qt_6 6.6.1
 _ZNK10QColorAxis4sizeEv@Qt_6 6.6.1
 _ZNK10QColorAxis4typeEv@Qt_6 6.6.1
 _ZNK10QColorAxis8gradientEv@Qt_6 6.6.1
 _ZNK10QColorAxis9autoRangeEv@Qt_6 6.6.1
 _ZNK10QColorAxis9tickCountEv@Qt_6 6.6.1
 _ZNK10QPieSeries10metaObjectEv@Qt_6 6.6.1
 _ZNK10QPieSeries11pieEndAngleEv@Qt_6 6.6.1
 _ZNK10QPieSeries13pieStartAngleEv@Qt_6 6.6.1
 _ZNK10QPieSeries16verticalPositionEv@Qt_6 6.6.1
 _ZNK10QPieSeries18horizontalPositionEv@Qt_6 6.6.1
 _ZNK10QPieSeries3sumEv@Qt_6 6.6.1
 _ZNK10QPieSeries4typeEv@Qt_6 6.6.1
 _ZNK10QPieSeries5countEv@Qt_6 6.6.1
 _ZNK10QPieSeries6slicesEv@Qt_6 6.6.1
 _ZNK10QPieSeries7isEmptyEv@Qt_6 6.6.1
 _ZNK10QPieSeries7pieSizeEv@Qt_6 6.6.1
 _ZNK10QPieSeries8holeSizeEv@Qt_6 6.6.1
 _ZNK10QValueAxis10metaObjectEv@Qt_6 6.6.1
 _ZNK10QValueAxis10tickAnchorEv@Qt_6 6.6.1
 _ZNK10QValueAxis11labelFormatEv@Qt_6 6.6.1
 _ZNK10QValueAxis12tickIntervalEv@Qt_6 6.6.1
 _ZNK10QValueAxis14minorTickCountEv@Qt_6 6.6.1
 _ZNK10QValueAxis3maxEv@Qt_6 6.6.1
 _ZNK10QValueAxis3minEv@Qt_6 6.6.1
 _ZNK10QValueAxis4typeEv@Qt_6 6.6.1
 _ZNK10QValueAxis8tickTypeEv@Qt_6 6.6.1
 _ZNK10QValueAxis9tickCountEv@Qt_6 6.6.1
 _ZNK11BoxWhiskers10metaObjectEv@Qt_6_PRIVATE_API 6.6.1
 _ZNK11BoxWhiskers12boundingRectEv@Qt_6_PRIVATE_API 6.6.1
 _ZNK11BoxWhiskers8sizeHintEN2Qt8SizeHintERK6QSizeF@Qt_6_PRIVATE_API 6.6.1
 _ZNK11Candlestick10metaObjectEv@Qt_6_PRIVATE_API 6.6.1
 _ZNK11Candlestick12boundingRectEv@Qt_6_PRIVATE_API 6.6.1
 _ZNK11LogXYDomain10metaObjectEv@Qt_6_PRIVATE_API 6.6.1
 _ZNK11LogXYDomain20calculateDomainPointERK7QPointF@Qt_6_PRIVATE_API 6.6.1
 _ZNK11LogXYDomain22calculateGeometryPointERK7QPointFRb@Qt_6_PRIVATE_API 6.6.1
 _ZNK11LogXYDomain23calculateGeometryPointsERK5QListI7QPointFE@Qt_6_PRIVATE_API 6.6.1
 _ZNK11PolarDomain10metaObjectEv@Qt_6_PRIVATE_API 6.6.1
 _ZNK11PolarDomain22calculateGeometryPointERK7QPointFRb@Qt_6_PRIVATE_API 6.6.1
 _ZNK11PolarDomain22polarCoordinateToPointEdd@Qt_6_PRIVATE_API 6.6.1
 _ZNK11PolarDomain23calculateGeometryPointsERK5QListI7QPointFE@Qt_6_PRIVATE_API 6.6.1
 _ZNK11QAreaSeries10metaObjectEv@Qt_6 6.6.1
 _ZNK11QAreaSeries11borderColorEv@Qt_6 6.6.1
 _ZNK11QAreaSeries11lowerSeriesEv@Qt_6 6.6.1
 _ZNK11QAreaSeries11upperSeriesEv@Qt_6 6.6.1
 _ZNK11QAreaSeries13pointsVisibleEv@Qt_6 6.6.1
 _ZNK11QAreaSeries15pointLabelsFontEv@Qt_6 6.6.1
 _ZNK11QAreaSeries16pointLabelsColorEv@Qt_6 6.6.1
 _ZNK11QAreaSeries17pointLabelsFormatEv@Qt_6 6.6.1
 _ZNK11QAreaSeries18pointLabelsVisibleEv@Qt_6 6.6.1
 _ZNK11QAreaSeries19pointLabelsClippingEv@Qt_6 6.6.1
 _ZNK11QAreaSeries3penEv@Qt_6 6.6.1
 _ZNK11QAreaSeries4typeEv@Qt_6 6.6.1
 _ZNK11QAreaSeries5brushEv@Qt_6 6.6.1
 _ZNK11QAreaSeries5colorEv@Qt_6 6.6.1
 _ZNK11QLineSeries10metaObjectEv@Qt_6 6.6.1
 _ZNK11QLineSeries4typeEv@Qt_6 6.6.1
 _ZNK11QPolarChart10metaObjectEv@Qt_6 6.6.1
 _ZNK11QPolarChart4axesE6QFlagsINS_16PolarOrientationEEP15QAbstractSeries@Qt_6 6.6.1
 _ZNK11XLogYDomain10metaObjectEv@Qt_6_PRIVATE_API 6.6.1
 _ZNK11XLogYDomain20calculateDomainPointERK7QPointF@Qt_6_PRIVATE_API 6.6.1
 _ZNK11XLogYDomain22calculateGeometryPointERK7QPointFRb@Qt_6_PRIVATE_API 6.6.1
 _ZNK11XLogYDomain23calculateGeometryPointsERK5QListI7QPointFE@Qt_6_PRIVATE_API 6.6.1
 _ZNK11XYAnimation12interpolatedERK8QVariantS2_d@Qt_6_PRIVATE_API 6.6.1
 _ZNK12BarAnimation10metaObjectEv@Qt_6_PRIVATE_API 6.6.1
 _ZNK12BarAnimation12interpolatedERK8QVariantS2_d@Qt_6_PRIVATE_API 6.6.1
 _ZNK12BarChartItem10metaObjectEv@Qt_6_PRIVATE_API 6.6.1
 _ZNK12ChartDataSet10metaObjectEv@Qt_6_PRIVATE_API 6.6.1
 _ZNK12ChartDataSet15domainForSeriesEP15QAbstractSeries@Qt_6_PRIVATE_API 6.6.1
 _ZNK12ChartDataSet4axesEv@Qt_6_PRIVATE_API 6.6.1
 _ZNK12ChartDataSet6seriesEv@Qt_6_PRIVATE_API 6.6.1
 _ZNK12ChartElement12themeManagerEv@Qt_6_PRIVATE_API 6.6.1
 _ZNK12ChartElement7dataSetEv@Qt_6_PRIVATE_API 6.6.1
 _ZNK12ChartElement9presenterEv@Qt_6_PRIVATE_API 6.6.1
 _ZNK12LegendLayout6offsetEv@Qt_6_PRIVATE_API 6.6.1
 _ZNK12LegendLayout8sizeHintEN2Qt8SizeHintERK6QSizeF@Qt_6_PRIVATE_API 6.6.1
 _ZNK12PieAnimation10metaObjectEv@Qt_6_PRIVATE_API 6.6.1
 _ZNK12PieChartItem10metaObjectEv@Qt_6_PRIVATE_API 6.6.1
 _ZNK12PieChartItem9animationEv@Qt_6_PRIVATE_API 6.6.1
 _ZNK12PieSliceItem10metaObjectEv@Qt_6_PRIVATE_API 6.6.1
 _ZNK12PieSliceItem12boundingRectEv@Qt_6_PRIVATE_API 6.6.1
 _ZNK12PieSliceItem5shapeEv@Qt_6_PRIVATE_API 6.6.1
 _ZNK12ScrollTicker10metaObjectEv@Qt_6_PRIVATE_API 6.6.1
 _ZNK12VerticalAxis8sizeHintEN2Qt8SizeHintERK6QSizeF@Qt_6_PRIVATE_API 6.6.1
 _ZNK13AreaChartItem10metaObjectEv@Qt_6_PRIVATE_API 6.6.1
 _ZNK13AreaChartItem12boundingRectEv@Qt_6_PRIVATE_API 6.6.1
 _ZNK13AreaChartItem5shapeEv@Qt_6_PRIVATE_API 6.6.1
 _ZNK13AxisAnimation12interpolatedERK8QVariantS2_d@Qt_6_PRIVATE_API 6.6.1
 _ZNK13LineChartItem10metaObjectEv@Qt_6_PRIVATE_API 6.6.1
 _ZNK13LineChartItem12boundingRectEv@Qt_6_PRIVATE_API 6.6.1
 _ZNK13LineChartItem5shapeEv@Qt_6_PRIVATE_API 6.6.1
 _ZNK13QAbstractAxis10labelsFontEv@Qt_6 6.6.1
 _ZNK13QAbstractAxis10metaObjectEv@Qt_6 6.6.1
 _ZNK13QAbstractAxis10titleBrushEv@Qt_6 6.6.1
 _ZNK13QAbstractAxis11gridLinePenEv@Qt_6 6.6.1
 _ZNK13QAbstractAxis11labelsAngleEv@Qt_6 6.6.1
 _ZNK13QAbstractAxis11labelsBrushEv@Qt_6 6.6.1
 _ZNK13QAbstractAxis11labelsColorEv@Qt_6 6.6.1
 _ZNK13QAbstractAxis11orientationEv@Qt_6 6.6.1
 _ZNK13QAbstractAxis11shadesBrushEv@Qt_6 6.6.1
 _ZNK13QAbstractAxis11shadesColorEv@Qt_6 6.6.1
 _ZNK13QAbstractAxis12linePenColorEv@Qt_6 6.6.1
 _ZNK13QAbstractAxis13isLineVisibleEv@Qt_6 6.6.1
 _ZNK13QAbstractAxis13labelsVisibleEv@Qt_6 6.6.1
 _ZNK13QAbstractAxis13shadesVisibleEv@Qt_6 6.6.1
 _ZNK13QAbstractAxis14isTitleVisibleEv@Qt_6 6.6.1
 _ZNK13QAbstractAxis14labelsEditableEv@Qt_6 6.6.1
 _ZNK13QAbstractAxis14truncateLabelsEv@Qt_6 6.6.1
 _ZNK13QAbstractAxis15labelsTruncatedEv@Qt_6 6.6.1
 _ZNK13QAbstractAxis16minorGridLinePenEv@Qt_6 6.6.1
 _ZNK13QAbstractAxis17isGridLineVisibleEv@Qt_6 6.6.1
 _ZNK13QAbstractAxis17shadesBorderColorEv@Qt_6 6.6.1
 _ZNK13QAbstractAxis22isMinorGridLineVisibleEv@Qt_6 6.6.1
 _ZNK13QAbstractAxis7linePenEv@Qt_6 6.6.1
 _ZNK13QAbstractAxis9alignmentEv@Qt_6 6.6.1
 _ZNK13QAbstractAxis9isReverseEv@Qt_6 6.6.1
 _ZNK13QAbstractAxis9isVisibleEv@Qt_6 6.6.1
 _ZNK13QAbstractAxis9shadesPenEv@Qt_6 6.6.1
 _ZNK13QAbstractAxis9titleFontEv@Qt_6 6.6.1
 _ZNK13QAbstractAxis9titleTextEv@Qt_6 6.6.1
 _ZNK13QCategoryAxis10metaObjectEv@Qt_6 6.6.1
 _ZNK13QCategoryAxis10startValueERK7QString@Qt_6 6.6.1
 _ZNK13QCategoryAxis14labelsPositionEv@Qt_6 6.6.1
 _ZNK13QCategoryAxis4typeEv@Qt_6 6.6.1
 _ZNK13QCategoryAxis5countEv@Qt_6 6.6.1
 _ZNK13QCategoryAxis8endValueERK7QString@Qt_6 6.6.1
 _ZNK13QDateTimeAxis10metaObjectEv@Qt_6 6.6.1
 _ZNK13QDateTimeAxis3maxEv@Qt_6 6.6.1
 _ZNK13QDateTimeAxis3minEv@Qt_6 6.6.1
 _ZNK13QDateTimeAxis4typeEv@Qt_6 6.6.1
 _ZNK13QDateTimeAxis6formatEv@Qt_6 6.6.1
 _ZNK13QDateTimeAxis9tickCountEv@Qt_6 6.6.1
 _ZNK13QLegendMarker10labelBrushEv@Qt_6 6.6.1
 _ZNK13QLegendMarker10metaObjectEv@Qt_6 6.6.1
 _ZNK13QLegendMarker3penEv@Qt_6 6.6.1
 _ZNK13QLegendMarker4fontEv@Qt_6 6.6.1
 _ZNK13QLegendMarker5brushEv@Qt_6 6.6.1
 _ZNK13QLegendMarker5labelEv@Qt_6 6.6.1
 _ZNK13QLegendMarker5shapeEv@Qt_6 6.6.1
 _ZNK13QLegendMarker9isVisibleEv@Qt_6 6.6.1
 _ZNK13QLogValueAxis10metaObjectEv@Qt_6 6.6.1
 _ZNK13QLogValueAxis11labelFormatEv@Qt_6 6.6.1
 _ZNK13QLogValueAxis14minorTickCountEv@Qt_6 6.6.1
 _ZNK13QLogValueAxis3maxEv@Qt_6 6.6.1
 _ZNK13QLogValueAxis3minEv@Qt_6 6.6.1
 _ZNK13QLogValueAxis4baseEv@Qt_6 6.6.1
 _ZNK13QLogValueAxis4typeEv@Qt_6 6.6.1
 _ZNK13QLogValueAxis9tickCountEv@Qt_6 6.6.1
 _ZNK13QSplineSeries10metaObjectEv@Qt_6 6.6.1
 _ZNK13QSplineSeries4typeEv@Qt_6 6.6.1
 _ZNK13XYPolarDomain10metaObjectEv@Qt_6_PRIVATE_API 6.6.1
 _ZNK13XYPolarDomain18toRadialCoordinateEdRb@Qt_6_PRIVATE_API 6.6.1
 _ZNK13XYPolarDomain19toAngularCoordinateEdRb@Qt_6_PRIVATE_API 6.6.1
 _ZNK13XYPolarDomain20calculateDomainPointERK7QPointF@Qt_6_PRIVATE_API 6.6.1
 _ZNK14AbstractDomain10metaObjectEv@Qt_6_PRIVATE_API 6.6.1
 _ZNK14AbstractDomain4sizeEv@Qt_6_PRIVATE_API 6.6.1
 _ZNK14AbstractDomain5spanXEv@Qt_6_PRIVATE_API 6.6.1
 _ZNK14AbstractDomain5spanYEv@Qt_6_PRIVATE_API 6.6.1
 _ZNK14AbstractDomain7isEmptyEv@Qt_6_PRIVATE_API 6.6.1
 _ZNK14ChartAnimation10metaObjectEv@Qt_6_PRIVATE_API 6.6.1
 _ZNK14ChartPresenter10chartItemsEv@Qt_6_PRIVATE_API 6.6.1
 _ZNK14ChartPresenter10metaObjectEv@Qt_6_PRIVATE_API 6.6.1
 _ZNK14ChartPresenter10titleBrushEv@Qt_6_PRIVATE_API 6.6.1
 _ZNK14ChartPresenter13backgroundPenEv@Qt_6_PRIVATE_API 6.6.1
 _ZNK14ChartPresenter15backgroundBrushEv@Qt_6_PRIVATE_API 6.6.1
 _ZNK14ChartPresenter16animationOptionsEv@Qt_6_PRIVATE_API 6.6.1
 _ZNK14ChartPresenter19backgroundRoundnessEv@Qt_6_PRIVATE_API 6.6.1
 _ZNK14ChartPresenter19isBackgroundVisibleEv@Qt_6_PRIVATE_API 6.6.1
 _ZNK14ChartPresenter21plotAreaBackgroundPenEv@Qt_6_PRIVATE_API 6.6.1
 _ZNK14ChartPresenter23plotAreaBackgroundBrushEv@Qt_6_PRIVATE_API 6.6.1
 _ZNK14ChartPresenter27isPlotAreaBackgroundVisibleEv@Qt_6_PRIVATE_API 6.6.1
 _ZNK14ChartPresenter29isBackgroundDropShadowEnabledEv@Qt_6_PRIVATE_API 6.6.1
 _ZNK14ChartPresenter5titleEv@Qt_6_PRIVATE_API 6.6.1
 _ZNK14ChartPresenter8geometryEv@Qt_6_PRIVATE_API 6.6.1
 _ZNK14ChartPresenter9axisItemsEv@Qt_6_PRIVATE_API 6.6.1
 _ZNK14ChartPresenter9titleFontEv@Qt_6_PRIVATE_API 6.6.1
 _ZNK14HorizontalAxis8sizeHintEN2Qt8SizeHintERK6QSizeF@Qt_6_PRIVATE_API 6.6.1
 _ZNK14LegendScroller10metaObjectEv@Qt_6_PRIVATE_API 6.6.1
 _ZNK14LegendScroller6offsetEv@Qt_6_PRIVATE_API 6.6.1
 _ZNK14LogXLogYDomain10metaObjectEv@Qt_6_PRIVATE_API 6.6.1
 _ZNK14LogXLogYDomain20calculateDomainPointERK7QPointF@Qt_6_PRIVATE_API 6.6.1
 _ZNK14LogXLogYDomain22calculateGeometryPointERK7QPointFRb@Qt_6_PRIVATE_API 6.6.1
 _ZNK14LogXLogYDomain23calculateGeometryPointsERK5QListI7QPointFE@Qt_6_PRIVATE_API 6.6.1
 _ZNK14PolarChartAxis10metaObjectEv@Qt_6_PRIVATE_API 6.6.1
 _ZNK14PolarChartAxis12gridGeometryEv@Qt_6_PRIVATE_API 6.6.1
 _ZNK14PolarChartAxis9emptyAxisEv@Qt_6_PRIVATE_API 6.6.1
 _ZNK14QBarSetPrivate10metaObjectEv@Qt_6_PRIVATE_API 6.6.1
 _ZNK14QBarSetPrivate13isBarSelectedEi@Qt_6_PRIVATE_API 6.6.1
 _ZNK14QBoxPlotSeries10metaObjectEv@Qt_6 6.6.1
 _ZNK14QBoxPlotSeries3penEv@Qt_6 6.6.1
 _ZNK14QBoxPlotSeries4typeEv@Qt_6 6.6.1
 _ZNK14QBoxPlotSeries5brushEv@Qt_6 6.6.1
 _ZNK14QBoxPlotSeries5countEv@Qt_6 6.6.1
 _ZNK14QBoxPlotSeries7boxSetsEv@Qt_6 6.6.1
 _ZNK14QBoxSetPrivate10metaObjectEv@Qt_6_PRIVATE_API 6.6.1
 _ZNK14QLegendPrivate10metaObjectEv@Qt_6_PRIVATE_API 6.6.1
 _ZNK14QLegendPrivate14maxMarkerWidthEv@Qt_6_PRIVATE_API 6.6.1
 _ZNK14QLegendPrivate6offsetEv@Qt_6_PRIVATE_API 6.6.1
 _ZNK14QScatterSeries10markerSizeEv@Qt_6 6.6.1
 _ZNK14QScatterSeries10metaObjectEv@Qt_6 6.6.1
 _ZNK14QScatterSeries11borderColorEv@Qt_6 6.6.1
 _ZNK14QScatterSeries11markerShapeEv@Qt_6 6.6.1
 _ZNK14QScatterSeries4typeEv@Qt_6 6.6.1
 _ZNK14QScatterSeries5brushEv@Qt_6 6.6.1
 _ZNK14QScatterSeries5colorEv@Qt_6 6.6.1
 _ZNK14QXYModelMapper10metaObjectEv@Qt_6 6.6.1
 _ZNK14QXYModelMapper11orientationEv@Qt_6 6.6.1
 _ZNK14QXYModelMapper5countEv@Qt_6 6.6.1
 _ZNK14QXYModelMapper5firstEv@Qt_6 6.6.1
 _ZNK14QXYModelMapper5modelEv@Qt_6 6.6.1
 _ZNK14QXYModelMapper6seriesEv@Qt_6 6.6.1
 _ZNK14QXYModelMapper8xSectionEv@Qt_6 6.6.1
 _ZNK14QXYModelMapper8ySectionEv@Qt_6 6.6.1
 _ZNK14ValueAxisLabel10metaObjectEv@Qt_6_PRIVATE_API 6.6.1
 _ZNK14ValueAxisLabel5valueEv@Qt_6_PRIVATE_API 6.6.1
 _ZNK15ChartBackground8diameterEv@Qt_6_PRIVATE_API 6.6.1
 _ZNK15ChartColorAxisX10metaObjectEv@Qt_6_PRIVATE_API 6.6.1
 _ZNK15ChartColorAxisX15calculateLayoutEv@Qt_6_PRIVATE_API 6.6.1
 _ZNK15ChartColorAxisX8sizeHintEN2Qt8SizeHintERK6QSizeF@Qt_6_PRIVATE_API 6.6.1
 _ZNK15ChartColorAxisY10metaObjectEv@Qt_6_PRIVATE_API 6.6.1
 _ZNK15ChartColorAxisY15calculateLayoutEv@Qt_6_PRIVATE_API 6.6.1
 _ZNK15ChartColorAxisY8sizeHintEN2Qt8SizeHintERK6QSizeF@Qt_6_PRIVATE_API 6.6.1
 _ZNK15ChartValueAxisX10metaObjectEv@Qt_6_PRIVATE_API 6.6.1
 _ZNK15ChartValueAxisX15calculateLayoutEv@Qt_6_PRIVATE_API 6.6.1
 _ZNK15ChartValueAxisX8sizeHintEN2Qt8SizeHintERK6QSizeF@Qt_6_PRIVATE_API 6.6.1
 _ZNK15ChartValueAxisY10metaObjectEv@Qt_6_PRIVATE_API 6.6.1
 _ZNK15ChartValueAxisY15calculateLayoutEv@Qt_6_PRIVATE_API 6.6.1
 _ZNK15ChartValueAxisY8sizeHintEN2Qt8SizeHintERK6QSizeF@Qt_6_PRIVATE_API 6.6.1
 _ZNK15QAbstractSeries10metaObjectEv@Qt_6 6.6.1
 _ZNK15QAbstractSeries4nameEv@Qt_6 6.6.1
 _ZNK15QAbstractSeries5chartEv@Qt_6 6.6.1
 _ZNK15QAbstractSeries7opacityEv@Qt_6 6.6.1
 _ZNK15QAbstractSeries9isVisibleEv@Qt_6 6.6.1
 _ZNK15QAbstractSeries9useOpenGLEv@Qt_6 6.6.1
 _ZNK15QBarModelMapper10metaObjectEv@Qt_6 6.6.1
 _ZNK15QBarModelMapper11orientationEv@Qt_6 6.6.1
 _ZNK15QBarModelMapper17lastBarSetSectionEv@Qt_6 6.6.1
 _ZNK15QBarModelMapper18firstBarSetSectionEv@Qt_6 6.6.1
 _ZNK15QBarModelMapper5countEv@Qt_6 6.6.1
 _ZNK15QBarModelMapper5firstEv@Qt_6 6.6.1
 _ZNK15QBarModelMapper5modelEv@Qt_6 6.6.1
 _ZNK15QBarModelMapper6seriesEv@Qt_6 6.6.1
 _ZNK15QCandlestickSet10metaObjectEv@Qt_6 6.6.1
 _ZNK15QCandlestickSet3lowEv@Qt_6 6.6.1
 _ZNK15QCandlestickSet3penEv@Qt_6 6.6.1
 _ZNK15QCandlestickSet4highEv@Qt_6 6.6.1
 _ZNK15QCandlestickSet4openEv@Qt_6 6.6.1
 _ZNK15QCandlestickSet5brushEv@Qt_6 6.6.1
 _ZNK15QCandlestickSet5closeEv@Qt_6 6.6.1
 _ZNK15QCandlestickSet9timestampEv@Qt_6 6.6.1
 _ZNK15QHXYModelMapper10metaObjectEv@Qt_6 6.6.1
 _ZNK15QHXYModelMapper11columnCountEv@Qt_6 6.6.1
 _ZNK15QHXYModelMapper11firstColumnEv@Qt_6 6.6.1
 _ZNK15QHXYModelMapper4xRowEv@Qt_6 6.6.1
 _ZNK15QHXYModelMapper4yRowEv@Qt_6 6.6.1
 _ZNK15QHXYModelMapper5modelEv@Qt_6 6.6.1
 _ZNK15QHXYModelMapper6seriesEv@Qt_6 6.6.1
 _ZNK15QPieModelMapper10metaObjectEv@Qt_6 6.6.1
 _ZNK15QPieModelMapper11orientationEv@Qt_6 6.6.1
 _ZNK15QPieModelMapper13labelsSectionEv@Qt_6 6.6.1
 _ZNK15QPieModelMapper13valuesSectionEv@Qt_6 6.6.1
 _ZNK15QPieModelMapper5countEv@Qt_6 6.6.1
 _ZNK15QPieModelMapper5firstEv@Qt_6 6.6.1
 _ZNK15QPieModelMapper5modelEv@Qt_6 6.6.1
 _ZNK15QPieModelMapper6seriesEv@Qt_6 6.6.1
 _ZNK15QVXYModelMapper10metaObjectEv@Qt_6 6.6.1
 _ZNK15QVXYModelMapper5modelEv@Qt_6 6.6.1
 _ZNK15QVXYModelMapper6seriesEv@Qt_6 6.6.1
 _ZNK15QVXYModelMapper7xColumnEv@Qt_6 6.6.1
 _ZNK15QVXYModelMapper7yColumnEv@Qt_6 6.6.1
 _ZNK15QVXYModelMapper8firstRowEv@Qt_6 6.6.1
 _ZNK15QVXYModelMapper8rowCountEv@Qt_6 6.6.1
 _ZNK15QXYLegendMarker10metaObjectEv@Qt_6 6.6.1
 _ZNK15SplineAnimation12interpolatedERK8QVariantS2_d@Qt_6_PRIVATE_API 6.6.1
 _ZNK15SplineChartItem10metaObjectEv@Qt_6_PRIVATE_API 6.6.1
 _ZNK15SplineChartItem12boundingRectEv@Qt_6_PRIVATE_API 6.6.1
 _ZNK15SplineChartItem21controlGeometryPointsEv@Qt_6_PRIVATE_API 6.6.1
 _ZNK15SplineChartItem5shapeEv@Qt_6_PRIVATE_API 6.6.1
 _ZNK15SplineChartItem9animationEv@Qt_6_PRIVATE_API 6.6.1
 _ZNK16BoxPlotAnimation10metaObjectEv@Qt_6_PRIVATE_API 6.6.1
 _ZNK16BoxPlotChartItem10metaObjectEv@Qt_6_PRIVATE_API 6.6.1
 _ZNK16BoxPlotChartItem12boundingRectEv@Qt_6_PRIVATE_API 6.6.1
 _ZNK16ChartAxisElement10metaObjectEv@Qt_6_PRIVATE_API 6.6.1
 _ZNK16ChartAxisElement10tickAnchorEv@Qt_6_PRIVATE_API 6.6.1
 _ZNK16ChartAxisElement11formatLabelERK7QStringRK10QByteArraydiS2_S2_@Qt_6_PRIVATE_API 6.6.1
 _ZNK16ChartAxisElement12tickIntervalEv@Qt_6_PRIVATE_API 6.6.1
 _ZNK16ChartAxisElement13labelsVisibleEv@Qt_6_PRIVATE_API 6.6.1
 _ZNK16ChartAxisElement14labelsEditableEv@Qt_6_PRIVATE_API 6.6.1
 _ZNK16ChartAxisElement17createColorLabelsEddi@Qt_6_PRIVATE_API 6.6.1
 _ZNK16ChartAxisElement17createValueLabelsEddiddN10QValueAxis8TickTypeERK7QString@Qt_6_PRIVATE_API 6.6.1
 _ZNK16ChartAxisElement20createDateTimeLabelsEddiRK7QString@Qt_6_PRIVATE_API 6.6.1
 _ZNK16ChartAxisElement20createLogValueLabelsEdddiRK7QString@Qt_6_PRIVATE_API 6.6.1
 _ZNK16ChartAxisElement3maxEv@Qt_6_PRIVATE_API 6.6.1
 _ZNK16ChartAxisElement3minEv@Qt_6_PRIVATE_API 6.6.1
 _ZNK16ChartAxisElement9emptyAxisEv@Qt_6_PRIVATE_API 6.6.1
 _ZNK16LegendMarkerItem10labelBrushEv@Qt_6_PRIVATE_API 6.6.1
 _ZNK16LegendMarkerItem10markerRectEv@Qt_6_PRIVATE_API 6.6.1
 _ZNK16LegendMarkerItem10metaObjectEv@Qt_6_PRIVATE_API 6.6.1
 _ZNK16LegendMarkerItem11markerShapeEv@Qt_6_PRIVATE_API 6.6.1
 _ZNK16LegendMarkerItem11useMaxWidthEv@Qt_6_PRIVATE_API 6.6.1
 _ZNK16LegendMarkerItem12boundingRectEv@Qt_6_PRIVATE_API 6.6.1
 _ZNK16LegendMarkerItem14displayedLabelEv@Qt_6_PRIVATE_API 6.6.1
 _ZNK16LegendMarkerItem20effectiveMarkerShapeEv@Qt_6_PRIVATE_API 6.6.1
 _ZNK16LegendMarkerItem20effectiveMarkerWidthEv@Qt_6_PRIVATE_API 6.6.1
 _ZNK16LegendMarkerItem3penEv@Qt_6_PRIVATE_API 6.6.1
 _ZNK16LegendMarkerItem4fontEv@Qt_6_PRIVATE_API 6.6.1
 _ZNK16LegendMarkerItem5brushEv@Qt_6_PRIVATE_API 6.6.1
 _ZNK16LegendMarkerItem5labelEv@Qt_6_PRIVATE_API 6.6.1
 _ZNK16LegendMarkerItem8sizeHintEN2Qt8SizeHintERK6QSizeF@Qt_6_PRIVATE_API 6.6.1
 _ZNK16LogXYPolarDomain10metaObjectEv@Qt_6_PRIVATE_API 6.6.1
 _ZNK16LogXYPolarDomain18toRadialCoordinateEdRb@Qt_6_PRIVATE_API 6.6.1
 _ZNK16LogXYPolarDomain19toAngularCoordinateEdRb@Qt_6_PRIVATE_API 6.6.1
 _ZNK16LogXYPolarDomain20calculateDomainPointERK7QPointF@Qt_6_PRIVATE_API 6.6.1
 _ZNK16PolarChartLayout20calculateAxisMinimumERK6QRectFRK5QListIP16ChartAxisElementE@Qt_6_PRIVATE_API 6.6.1
 _ZNK16PolarChartLayout21calculateAxisGeometryERK6QRectFRK5QListIP16ChartAxisElementEb@Qt_6_PRIVATE_API 6.6.1
 _ZNK16QBarCategoryAxis10metaObjectEv@Qt_6 6.6.1
 _ZNK16QBarCategoryAxis2atEi@Qt_6 6.6.1
 _ZNK16QBarCategoryAxis3maxEv@Qt_6 6.6.1
 _ZNK16QBarCategoryAxis3minEv@Qt_6 6.6.1
 _ZNK16QBarCategoryAxis4typeEv@Qt_6 6.6.1
 _ZNK16QBarCategoryAxis5countEv@Qt_6 6.6.1
 _ZNK16QBarLegendMarker10metaObjectEv@Qt_6 6.6.1
 _ZNK16QHBarModelMapper10metaObjectEv@Qt_6 6.6.1
 _ZNK16QHBarModelMapper11columnCountEv@Qt_6 6.6.1
 _ZNK16QHBarModelMapper11firstColumnEv@Qt_6 6.6.1
 _ZNK16QHBarModelMapper13lastBarSetRowEv@Qt_6 6.6.1
 _ZNK16QHBarModelMapper14firstBarSetRowEv@Qt_6 6.6.1
 _ZNK16QHBarModelMapper5modelEv@Qt_6 6.6.1
 _ZNK16QHBarModelMapper6seriesEv@Qt_6 6.6.1
 _ZNK16QHPieModelMapper10metaObjectEv@Qt_6 6.6.1
 _ZNK16QHPieModelMapper11columnCountEv@Qt_6 6.6.1
 _ZNK16QHPieModelMapper11firstColumnEv@Qt_6 6.6.1
 _ZNK16QHPieModelMapper5modelEv@Qt_6 6.6.1
 _ZNK16QHPieModelMapper6seriesEv@Qt_6 6.6.1
 _ZNK16QHPieModelMapper9labelsRowEv@Qt_6 6.6.1
 _ZNK16QHPieModelMapper9valuesRowEv@Qt_6 6.6.1
 _ZNK16QPieLegendMarker10metaObjectEv@Qt_6 6.6.1
 _ZNK16QPieSlicePrivate10metaObjectEv@Qt_6_PRIVATE_API 6.6.1
 _ZNK16QVBarModelMapper10metaObjectEv@Qt_6 6.6.1
 _ZNK16QVBarModelMapper16lastBarSetColumnEv@Qt_6 6.6.1
 _ZNK16QVBarModelMapper17firstBarSetColumnEv@Qt_6 6.6.1
 _ZNK16QVBarModelMapper5modelEv@Qt_6 6.6.1
 _ZNK16QVBarModelMapper6seriesEv@Qt_6 6.6.1
 _ZNK16QVBarModelMapper8firstRowEv@Qt_6 6.6.1
 _ZNK16QVBarModelMapper8rowCountEv@Qt_6 6.6.1
 _ZNK16QVPieModelMapper10metaObjectEv@Qt_6 6.6.1
 _ZNK16QVPieModelMapper12labelsColumnEv@Qt_6 6.6.1
 _ZNK16QVPieModelMapper12valuesColumnEv@Qt_6 6.6.1
 _ZNK16QVPieModelMapper5modelEv@Qt_6 6.6.1
 _ZNK16QVPieModelMapper6seriesEv@Qt_6 6.6.1
 _ZNK16QVPieModelMapper8firstRowEv@Qt_6 6.6.1
 _ZNK16QVPieModelMapper8rowCountEv@Qt_6 6.6.1
 _ZNK16QXYSeriesPrivate10metaObjectEv@Qt_6_PRIVATE_API 6.6.1
 _ZNK16QXYSeriesPrivate11colorByDataEv@Qt_6_PRIVATE_API 6.6.1
 _ZNK16QXYSeriesPrivate15defaultAxisTypeEN2Qt11OrientationE@Qt_6_PRIVATE_API 6.6.1
 _ZNK16QXYSeriesPrivate17createDefaultAxisEN2Qt11OrientationE@Qt_6_PRIVATE_API 6.6.1
 _ZNK16QXYSeriesPrivate19bestFitLineEquationERb@Qt_6_PRIVATE_API 6.6.1
 _ZNK16ScatterChartItem10metaObjectEv@Qt_6_PRIVATE_API 6.6.1
 _ZNK16ScatterChartItem12boundingRectEv@Qt_6_PRIVATE_API 6.6.1
 _ZNK16XLogYPolarDomain10metaObjectEv@Qt_6_PRIVATE_API 6.6.1
 _ZNK16XLogYPolarDomain18toRadialCoordinateEdRb@Qt_6_PRIVATE_API 6.6.1
 _ZNK16XLogYPolarDomain19toAngularCoordinateEdRb@Qt_6_PRIVATE_API 6.6.1
 _ZNK16XLogYPolarDomain20calculateDomainPointERK7QPointF@Qt_6_PRIVATE_API 6.6.1
 _ZNK17ChartThemeManager10metaObjectEv@Qt_6_PRIVATE_API 6.6.1
 _ZNK17ChartThemeManager11seriesCountEN15QAbstractSeries10SeriesTypeE@Qt_6_PRIVATE_API 6.6.1
 _ZNK17ChartThemeManager13decorateChartEP6QChartP10ChartTheme@Qt_6_PRIVATE_API 6.6.1
 _ZNK17ChartThemeManager14createIndexKeyERK5QListIiE@Qt_6_PRIVATE_API 6.6.1
 _ZNK17ChartThemeManager14decorateLegendEP7QLegendP10ChartTheme@Qt_6_PRIVATE_API 6.6.1
 _ZNK17DateTimeAxisLabel10metaObjectEv@Qt_6_PRIVATE_API 6.6.1
 _ZNK17DateTimeAxisLabel5valueEv@Qt_6_PRIVATE_API 6.6.1
 _ZNK17EditableAxisLabel10metaObjectEv@Qt_6_PRIVATE_API 6.6.1
 _ZNK17EditableAxisLabel12boundingRectEv@Qt_6_PRIVATE_API 6.6.1
 _ZNK17PieSliceAnimation12interpolatedERK8QVariantS2_d@Qt_6_PRIVATE_API 6.6.1
 _ZNK17QAreaLegendMarker10metaObjectEv@Qt_6 6.6.1
 _ZNK17QColorAxisPrivate10metaObjectEv@Qt_6_PRIVATE_API 6.6.1
 _ZNK17QPercentBarSeries10metaObjectEv@Qt_6 6.6.1
 _ZNK17QPercentBarSeries4typeEv@Qt_6 6.6.1
 _ZNK17QPieSeriesPrivate10metaObjectEv@Qt_6_PRIVATE_API 6.6.1
 _ZNK17QPieSeriesPrivate15defaultAxisTypeEN2Qt11OrientationE@Qt_6_PRIVATE_API 6.6.1
 _ZNK17QPieSeriesPrivate17createDefaultAxisEN2Qt11OrientationE@Qt_6_PRIVATE_API 6.6.1
 _ZNK17QStackedBarSeries10metaObjectEv@Qt_6 6.6.1
 _ZNK17QStackedBarSeries4typeEv@Qt_6 6.6.1
 _ZNK17QValueAxisPrivate10metaObjectEv@Qt_6_PRIVATE_API 6.6.1
 _ZNK18CartesianChartAxis10metaObjectEv@Qt_6_PRIVATE_API 6.6.1
 _ZNK18CartesianChartAxis8sizeHintEN2Qt8SizeHintERK6QSizeF@Qt_6_PRIVATE_API 6.6.1
 _ZNK18CartesianChartAxis9emptyAxisEv@Qt_6_PRIVATE_API 6.6.1
 _ZNK18ChartCategoryAxisX10metaObjectEv@Qt_6_PRIVATE_API 6.6.1
 _ZNK18ChartCategoryAxisX15calculateLayoutEv@Qt_6_PRIVATE_API 6.6.1
 _ZNK18ChartCategoryAxisX8sizeHintEN2Qt8SizeHintERK6QSizeF@Qt_6_PRIVATE_API 6.6.1
 _ZNK18ChartCategoryAxisY10metaObjectEv@Qt_6_PRIVATE_API 6.6.1
 _ZNK18ChartCategoryAxisY15calculateLayoutEv@Qt_6_PRIVATE_API 6.6.1
 _ZNK18ChartCategoryAxisY8sizeHintEN2Qt8SizeHintERK6QSizeF@Qt_6_PRIVATE_API 6.6.1
 _ZNK18ChartDateTimeAxisX10metaObjectEv@Qt_6_PRIVATE_API 6.6.1
 _ZNK18ChartDateTimeAxisX15calculateLayoutEv@Qt_6_PRIVATE_API 6.6.1
 _ZNK18ChartDateTimeAxisX8sizeHintEN2Qt8SizeHintERK6QSizeF@Qt_6_PRIVATE_API 6.6.1
 _ZNK18ChartDateTimeAxisY10metaObjectEv@Qt_6_PRIVATE_API 6.6.1
 _ZNK18ChartDateTimeAxisY15calculateLayoutEv@Qt_6_PRIVATE_API 6.6.1
 _ZNK18ChartDateTimeAxisY8sizeHintEN2Qt8SizeHintERK6QSizeF@Qt_6_PRIVATE_API 6.6.1
 _ZNK18ChartLogValueAxisX10metaObjectEv@Qt_6_PRIVATE_API 6.6.1
 _ZNK18ChartLogValueAxisX15calculateLayoutEv@Qt_6_PRIVATE_API 6.6.1
 _ZNK18ChartLogValueAxisX8sizeHintEN2Qt8SizeHintERK6QSizeF@Qt_6_PRIVATE_API 6.6.1
 _ZNK18ChartLogValueAxisY10metaObjectEv@Qt_6_PRIVATE_API 6.6.1
 _ZNK18ChartLogValueAxisY15calculateLayoutEv@Qt_6_PRIVATE_API 6.6.1
 _ZNK18ChartLogValueAxisY8sizeHintEN2Qt8SizeHintERK6QSizeF@Qt_6_PRIVATE_API 6.6.1
 _ZNK18QAbstractBarSeries10metaObjectEv@Qt_6 6.6.1
 _ZNK18QAbstractBarSeries11labelsAngleEv@Qt_6 6.6.1
 _ZNK18QAbstractBarSeries12labelsFormatEv@Qt_6 6.6.1
 _ZNK18QAbstractBarSeries14labelsPositionEv@Qt_6 6.6.1
 _ZNK18QAbstractBarSeries15isLabelsVisibleEv@Qt_6 6.6.1
 _ZNK18QAbstractBarSeries15labelsPrecisionEv@Qt_6 6.6.1
 _ZNK18QAbstractBarSeries5countEv@Qt_6 6.6.1
 _ZNK18QAbstractBarSeries7barSetsEv@Qt_6 6.6.1
 _ZNK18QAbstractBarSeries8barWidthEv@Qt_6 6.6.1
 _ZNK18QAreaSeriesPrivate10metaObjectEv@Qt_6_PRIVATE_API 6.6.1
 _ZNK18QAreaSeriesPrivate15defaultAxisTypeEN2Qt11OrientationE@Qt_6_PRIVATE_API 6.6.1
 _ZNK18QAreaSeriesPrivate17createDefaultAxisEN2Qt11OrientationE@Qt_6_PRIVATE_API 6.6.1
 _ZNK18QCandlestickSeries10metaObjectEv@Qt_6 6.6.1
 _ZNK18QCandlestickSeries11capsVisibleEv@Qt_6 6.6.1
 _ZNK18QCandlestickSeries15decreasingColorEv@Qt_6 6.6.1
 _ZNK18QCandlestickSeries15increasingColorEv@Qt_6 6.6.1
 _ZNK18QCandlestickSeries18bodyOutlineVisibleEv@Qt_6 6.6.1
 _ZNK18QCandlestickSeries18maximumColumnWidthEv@Qt_6 6.6.1
 _ZNK18QCandlestickSeries18minimumColumnWidthEv@Qt_6 6.6.1
 _ZNK18QCandlestickSeries3penEv@Qt_6 6.6.1
 _ZNK18QCandlestickSeries4setsEv@Qt_6 6.6.1
 _ZNK18QCandlestickSeries4typeEv@Qt_6 6.6.1
 _ZNK18QCandlestickSeries5brushEv@Qt_6 6.6.1
 _ZNK18QCandlestickSeries5countEv@Qt_6 6.6.1
 _ZNK18QCandlestickSeries9bodyWidthEv@Qt_6 6.6.1
 _ZNK18QCandlestickSeries9capsWidthEv@Qt_6 6.6.1
 _ZNK19AbstractChartLayout21calculateTitleMinimumERK6QRectFP10ChartTitle@Qt_6_PRIVATE_API 6.6.1
 _ZNK19AbstractChartLayout22calculateLegendMinimumERK6QRectFP7QLegend@Qt_6_PRIVATE_API 6.6.1
 _ZNK19AbstractChartLayout22calculateTitleGeometryERK6QRectFP10ChartTitleb@Qt_6_PRIVATE_API 6.6.1
 _ZNK19AbstractChartLayout23calculateContentMinimumERK6QRectF@Qt_6_PRIVATE_API 6.6.1
 _ZNK19AbstractChartLayout23calculateLegendGeometryERK6QRectFP7QLegendb@Qt_6_PRIVATE_API 6.6.1
 _ZNK19AbstractChartLayout24calculateContentGeometryERK6QRectF@Qt_6_PRIVATE_API 6.6.1
 _ZNK19AbstractChartLayout26calculateBackgroundMinimumERK6QRectF@Qt_6_PRIVATE_API 6.6.1
 _ZNK19AbstractChartLayout27calculateBackgroundGeometryERK6QRectFP15ChartBackgroundb@Qt_6_PRIVATE_API 6.6.1
 _ZNK19AbstractChartLayout7marginsEv@Qt_6_PRIVATE_API 6.6.1
 _ZNK19AbstractChartLayout8sizeHintEN2Qt8SizeHintERK6QSizeF@Qt_6_PRIVATE_API 6.6.1
 _ZNK19LogXLogYPolarDomain10metaObjectEv@Qt_6_PRIVATE_API 6.6.1
 _ZNK19LogXLogYPolarDomain18toRadialCoordinateEdRb@Qt_6_PRIVATE_API 6.6.1
 _ZNK19LogXLogYPolarDomain19toAngularCoordinateEdRb@Qt_6_PRIVATE_API 6.6.1
 _ZNK19LogXLogYPolarDomain20calculateDomainPointERK7QPointF@Qt_6_PRIVATE_API 6.6.1
 _ZNK19PercentBarChartItem10metaObjectEv@Qt_6_PRIVATE_API 6.6.1
 _ZNK19QBoxPlotModelMapper10metaObjectEv@Qt_6 6.6.1
 _ZNK19QBoxPlotModelMapper11orientationEv@Qt_6 6.6.1
 _ZNK19QBoxPlotModelMapper17lastBoxSetSectionEv@Qt_6 6.6.1
 _ZNK19QBoxPlotModelMapper18firstBoxSetSectionEv@Qt_6 6.6.1
 _ZNK19QBoxPlotModelMapper5countEv@Qt_6 6.6.1
 _ZNK19QBoxPlotModelMapper5firstEv@Qt_6 6.6.1
 _ZNK19QBoxPlotModelMapper5modelEv@Qt_6 6.6.1
 _ZNK19QBoxPlotModelMapper6seriesEv@Qt_6 6.6.1
 _ZNK19StackedBarChartItem10metaObjectEv@Qt_6_PRIVATE_API 6.6.1
 _ZNK20AbstractBarChartItem10metaObjectEv@Qt_6_PRIVATE_API 6.6.1
 _ZNK20AbstractBarChartItem12boundingRectEv@Qt_6_PRIVATE_API 6.6.1
 _ZNK20AbstractBarChartItem9animationEv@Qt_6_PRIVATE_API 6.6.1
 _ZNK20BoxWhiskersAnimation10metaObjectEv@Qt_6_PRIVATE_API 6.6.1
 _ZNK20BoxWhiskersAnimation12interpolatedERK8QVariantS2_d@Qt_6_PRIVATE_API 6.6.1
 _ZNK20CandlestickAnimation10metaObjectEv@Qt_6_PRIVATE_API 6.6.1
 _ZNK20CandlestickChartItem10metaObjectEv@Qt_6_PRIVATE_API 6.6.1
 _ZNK20CandlestickChartItem12boundingRectEv@Qt_6_PRIVATE_API 6.6.1
 _ZNK20CartesianChartLayout20calculateAxisMinimumERK6QRectFRK5QListIP16ChartAxisElementE@Qt_6_PRIVATE_API 6.6.1
 _ZNK20CartesianChartLayout21calculateAxisGeometryERK6QRectFRK5QListIP16ChartAxisElementEb@Qt_6_PRIVATE_API 6.6.1
 _ZNK20PolarChartAxisRadial10metaObjectEv@Qt_6_PRIVATE_API 6.6.1
 _ZNK20PolarChartAxisRadial11orientationEv@Qt_6_PRIVATE_API 6.6.1
 _ZNK20PolarChartAxisRadial8sizeHintEN2Qt8SizeHintERK6QSizeF@Qt_6_PRIVATE_API 6.6.1
 _ZNK20QAbstractAxisPrivate10metaObjectEv@Qt_6_PRIVATE_API 6.6.1
 _ZNK20QBoxPlotLegendMarker10metaObjectEv@Qt_6 6.6.1
 _ZNK20QCategoryAxisPrivate10metaObjectEv@Qt_6_PRIVATE_API 6.6.1
 _ZNK20QCategoryAxisPrivate10ticksCountEv@Qt_6_PRIVATE_API 6.6.1
 _ZNK20QDateTimeAxisPrivate10metaObjectEv@Qt_6_PRIVATE_API 6.6.1
 _ZNK20QHBoxPlotModelMapper10metaObjectEv@Qt_6 6.6.1
 _ZNK20QHBoxPlotModelMapper11columnCountEv@Qt_6 6.6.1
 _ZNK20QHBoxPlotModelMapper11firstColumnEv@Qt_6 6.6.1
 _ZNK20QHBoxPlotModelMapper13lastBoxSetRowEv@Qt_6 6.6.1
 _ZNK20QHBoxPlotModelMapper14firstBoxSetRowEv@Qt_6 6.6.1
 _ZNK20QHBoxPlotModelMapper5modelEv@Qt_6 6.6.1
 _ZNK20QHBoxPlotModelMapper6seriesEv@Qt_6 6.6.1
 _ZNK20QHorizontalBarSeries10metaObjectEv@Qt_6 6.6.1
 _ZNK20QHorizontalBarSeries4typeEv@Qt_6 6.6.1
 _ZNK20QLegendMarkerPrivate10metaObjectEv@Qt_6_PRIVATE_API 6.6.1
 _ZNK20QLogValueAxisPrivate10metaObjectEv@Qt_6_PRIVATE_API 6.6.1
 _ZNK20QSplineSeriesPrivate10metaObjectEv@Qt_6_PRIVATE_API 6.6.1
 _ZNK20QVBoxPlotModelMapper10metaObjectEv@Qt_6 6.6.1
 _ZNK20QVBoxPlotModelMapper16lastBoxSetColumnEv@Qt_6 6.6.1
 _ZNK20QVBoxPlotModelMapper17firstBoxSetColumnEv@Qt_6 6.6.1
 _ZNK20QVBoxPlotModelMapper5modelEv@Qt_6 6.6.1
 _ZNK20QVBoxPlotModelMapper6seriesEv@Qt_6 6.6.1
 _ZNK20QVBoxPlotModelMapper8firstRowEv@Qt_6 6.6.1
 _ZNK20QVBoxPlotModelMapper8rowCountEv@Qt_6 6.6.1
 _ZNK21ChartBarCategoryAxisX10metaObjectEv@Qt_6_PRIVATE_API 6.6.1
 _ZNK21ChartBarCategoryAxisX15calculateLayoutEv@Qt_6_PRIVATE_API 6.6.1
 _ZNK21ChartBarCategoryAxisX20createCategoryLabelsERK5QListIdE@Qt_6_PRIVATE_API 6.6.1
 _ZNK21ChartBarCategoryAxisX8sizeHintEN2Qt8SizeHintERK6QSizeF@Qt_6_PRIVATE_API 6.6.1
 _ZNK21ChartBarCategoryAxisY10metaObjectEv@Qt_6_PRIVATE_API 6.6.1
 _ZNK21ChartBarCategoryAxisY15calculateLayoutEv@Qt_6_PRIVATE_API 6.6.1
 _ZNK21ChartBarCategoryAxisY20createCategoryLabelsERK5QListIdE@Qt_6_PRIVATE_API 6.6.1
 _ZNK21ChartBarCategoryAxisY8sizeHintEN2Qt8SizeHintERK6QSizeF@Qt_6_PRIVATE_API 6.6.1
 _ZNK21GLXYSeriesDataManager10metaObjectEv@Qt_6_PRIVATE_API 6.6.1
 _ZNK21PolarChartAxisAngular10metaObjectEv@Qt_6_PRIVATE_API 6.6.1
 _ZNK21PolarChartAxisAngular11orientationEv@Qt_6_PRIVATE_API 6.6.1
 _ZNK21PolarChartAxisAngular19moveLabelToPositionEd7QPointF6QRectF@Qt_6_PRIVATE_API 6.6.1
 _ZNK21PolarChartAxisAngular8sizeHintEN2Qt8SizeHintERK6QSizeF@Qt_6_PRIVATE_API 6.6.1
 _ZNK21QBoxPlotSeriesPrivate10metaObjectEv@Qt_6_PRIVATE_API 6.6.1
 _ZNK21QBoxPlotSeriesPrivate15defaultAxisTypeEN2Qt11OrientationE@Qt_6_PRIVATE_API 6.6.1
 _ZNK21QBoxPlotSeriesPrivate17createDefaultAxisEN2Qt11OrientationE@Qt_6_PRIVATE_API 6.6.1
 _ZNK21QXYModelMapperPrivate10metaObjectEv@Qt_6_PRIVATE_API 6.6.1
 _ZNK22HorizontalBarChartItem10metaObjectEv@Qt_6_PRIVATE_API 6.6.1
 _ZNK22QAbstractSeriesPrivate10metaObjectEv@Qt_6_PRIVATE_API 6.6.1
 _ZNK22QAbstractSeriesPrivate9presenterEv@Qt_6_PRIVATE_API 6.6.1
 _ZNK22QBarModelMapperPrivate10metaObjectEv@Qt_6_PRIVATE_API 6.6.1
 _ZNK22QCandlestickSetPrivate10metaObjectEv@Qt_6_PRIVATE_API 6.6.1
 _ZNK22QPieModelMapperPrivate10metaObjectEv@Qt_6_PRIVATE_API 6.6.1
 _ZNK22QPieModelMapperPrivate12isLabelIndexE11QModelIndex@Qt_6_PRIVATE_API 6.6.1
 _ZNK22QPieModelMapperPrivate12isValueIndexE11QModelIndex@Qt_6_PRIVATE_API 6.6.1
 _ZNK22QPieModelMapperPrivate8pieSliceE11QModelIndex@Qt_6_PRIVATE_API 6.6.1
 _ZNK22QXYLegendMarkerPrivate10metaObjectEv@Qt_6_PRIVATE_API 6.6.1
 _ZNK23QBarCategoryAxisPrivate10metaObjectEv@Qt_6_PRIVATE_API 6.6.1
 _ZNK23QBarLegendMarkerPrivate10metaObjectEv@Qt_6_PRIVATE_API 6.6.1
 _ZNK23QCandlestickModelMapper10metaObjectEv@Qt_6 6.6.1
 _ZNK23QCandlestickModelMapper14lastSetSectionEv@Qt_6 6.6.1
 _ZNK23QCandlestickModelMapper15firstSetSectionEv@Qt_6 6.6.1
 _ZNK23QCandlestickModelMapper3lowEv@Qt_6 6.6.1
 _ZNK23QCandlestickModelMapper4highEv@Qt_6 6.6.1
 _ZNK23QCandlestickModelMapper4openEv@Qt_6 6.6.1
 _ZNK23QCandlestickModelMapper5closeEv@Qt_6 6.6.1
 _ZNK23QCandlestickModelMapper5modelEv@Qt_6 6.6.1
 _ZNK23QCandlestickModelMapper6seriesEv@Qt_6 6.6.1
 _ZNK23QCandlestickModelMapper9timestampEv@Qt_6 6.6.1
 _ZNK23QPieLegendMarkerPrivate10metaObjectEv@Qt_6_PRIVATE_API 6.6.1
 _ZNK24QAreaLegendMarkerPrivate10metaObjectEv@Qt_6_PRIVATE_API 6.6.1
 _ZNK24QCandlestickLegendMarker10metaObjectEv@Qt_6 6.6.1
 _ZNK24QHCandlestickModelMapper10highColumnEv@Qt_6 6.6.1
 _ZNK24QHCandlestickModelMapper10lastSetRowEv@Qt_6 6.6.1
 _ZNK24QHCandlestickModelMapper10metaObjectEv@Qt_6 6.6.1
 _ZNK24QHCandlestickModelMapper10openColumnEv@Qt_6 6.6.1
 _ZNK24QHCandlestickModelMapper11closeColumnEv@Qt_6 6.6.1
 _ZNK24QHCandlestickModelMapper11firstSetRowEv@Qt_6 6.6.1
 _ZNK24QHCandlestickModelMapper11orientationEv@Qt_6 6.6.1
 _ZNK24QHCandlestickModelMapper15timestampColumnEv@Qt_6 6.6.1
 _ZNK24QHCandlestickModelMapper9lowColumnEv@Qt_6 6.6.1
 _ZNK24QVCandlestickModelMapper10metaObjectEv@Qt_6 6.6.1
 _ZNK24QVCandlestickModelMapper11orientationEv@Qt_6 6.6.1
 _ZNK24QVCandlestickModelMapper12timestampRowEv@Qt_6 6.6.1
 _ZNK24QVCandlestickModelMapper13lastSetColumnEv@Qt_6 6.6.1
 _ZNK24QVCandlestickModelMapper14firstSetColumnEv@Qt_6 6.6.1
 _ZNK24QVCandlestickModelMapper6lowRowEv@Qt_6 6.6.1
 _ZNK24QVCandlestickModelMapper7highRowEv@Qt_6 6.6.1
 _ZNK24QVCandlestickModelMapper7openRowEv@Qt_6 6.6.1
 _ZNK24QVCandlestickModelMapper8closeRowEv@Qt_6 6.6.1
 _ZNK25PolarChartValueAxisRadial10metaObjectEv@Qt_6_PRIVATE_API 6.6.1
 _ZNK25PolarChartValueAxisRadial15calculateLayoutEv@Qt_6_PRIVATE_API 6.6.1
 _ZNK25QAbstractBarSeriesPrivate10metaObjectEv@Qt_6_PRIVATE_API 6.6.1
 _ZNK25QAbstractBarSeriesPrivate11labelsAngleEv@Qt_6_PRIVATE_API 6.6.1
 _ZNK25QAbstractBarSeriesPrivate13categoryCountEv@Qt_6_PRIVATE_API 6.6.1
 _ZNK25QAbstractBarSeriesPrivate15defaultAxisTypeEN2Qt11OrientationE@Qt_6_PRIVATE_API 6.6.1
 _ZNK25QAbstractBarSeriesPrivate17createDefaultAxisEN2Qt11OrientationE@Qt_6_PRIVATE_API 6.6.1
 _ZNK25QAbstractBarSeriesPrivate8barWidthEv@Qt_6_PRIVATE_API 6.6.1
 _ZNK25QCandlestickSeriesPrivate10metaObjectEv@Qt_6_PRIVATE_API 6.6.1
 _ZNK25QCandlestickSeriesPrivate15defaultAxisTypeEN2Qt11OrientationE@Qt_6_PRIVATE_API 6.6.1
 _ZNK25QCandlestickSeriesPrivate17createDefaultAxisEN2Qt11OrientationE@Qt_6_PRIVATE_API 6.6.1
 _ZNK26PolarChartValueAxisAngular10metaObjectEv@Qt_6_PRIVATE_API 6.6.1
 _ZNK26PolarChartValueAxisAngular15calculateLayoutEv@Qt_6_PRIVATE_API 6.6.1
 _ZNK26QBoxPlotModelMapperPrivate10metaObjectEv@Qt_6_PRIVATE_API 6.6.1
 _ZNK27QBoxPlotLegendMarkerPrivate10metaObjectEv@Qt_6_PRIVATE_API 6.6.1
 _ZNK27QHorizontalPercentBarSeries10metaObjectEv@Qt_6 6.6.1
 _ZNK27QHorizontalPercentBarSeries4typeEv@Qt_6 6.6.1
 _ZNK27QHorizontalStackedBarSeries10metaObjectEv@Qt_6 6.6.1
 _ZNK27QHorizontalStackedBarSeries4typeEv@Qt_6 6.6.1
 _ZNK28PolarChartCategoryAxisRadial10metaObjectEv@Qt_6_PRIVATE_API 6.6.1
 _ZNK28PolarChartCategoryAxisRadial15calculateLayoutEv@Qt_6_PRIVATE_API 6.6.1
 _ZNK28PolarChartDateTimeAxisRadial10metaObjectEv@Qt_6_PRIVATE_API 6.6.1
 _ZNK28PolarChartDateTimeAxisRadial15calculateLayoutEv@Qt_6_PRIVATE_API 6.6.1
 _ZNK28PolarChartLogValueAxisRadial10metaObjectEv@Qt_6_PRIVATE_API 6.6.1
 _ZNK28PolarChartLogValueAxisRadial15calculateLayoutEv@Qt_6_PRIVATE_API 6.6.1
 _ZNK29CandlestickBodyWicksAnimation10metaObjectEv@Qt_6_PRIVATE_API 6.6.1
 _ZNK29CandlestickBodyWicksAnimation12interpolatedERK8QVariantS2_d@Qt_6_PRIVATE_API 6.6.1
 _ZNK29HorizontalPercentBarChartItem10metaObjectEv@Qt_6_PRIVATE_API 6.6.1
 _ZNK29HorizontalStackedBarChartItem10metaObjectEv@Qt_6_PRIVATE_API 6.6.1
 _ZNK29PolarChartCategoryAxisAngular10metaObjectEv@Qt_6_PRIVATE_API 6.6.1
 _ZNK29PolarChartCategoryAxisAngular15calculateLayoutEv@Qt_6_PRIVATE_API 6.6.1
 _ZNK29PolarChartDateTimeAxisAngular10metaObjectEv@Qt_6_PRIVATE_API 6.6.1
 _ZNK29PolarChartDateTimeAxisAngular15calculateLayoutEv@Qt_6_PRIVATE_API 6.6.1
 _ZNK29PolarChartLogValueAxisAngular10metaObjectEv@Qt_6_PRIVATE_API 6.6.1
 _ZNK29PolarChartLogValueAxisAngular15calculateLayoutEv@Qt_6_PRIVATE_API 6.6.1
 _ZNK30QCandlestickModelMapperPrivate10metaObjectEv@Qt_6_PRIVATE_API 6.6.1
 _ZNK31QCandlestickLegendMarkerPrivate10metaObjectEv@Qt_6_PRIVATE_API 6.6.1
 _ZNK3Bar10metaObjectEv@Qt_6_PRIVATE_API 6.6.1
 _ZNK6QChart10metaObjectEv@Qt_6 6.6.1
 _ZNK6QChart10titleBrushEv@Qt_6 6.6.1
 _ZNK6QChart13backgroundPenEv@Qt_6 6.6.1
 _ZNK6QChart15backgroundBrushEv@Qt_6 6.6.1
 _ZNK6QChart15localizeNumbersEv@Qt_6 6.6.1
 _ZNK6QChart16animationOptionsEv@Qt_6 6.6.1
 _ZNK6QChart17animationDurationEv@Qt_6 6.6.1
 _ZNK6QChart19backgroundRoundnessEv@Qt_6 6.6.1
 _ZNK6QChart19isBackgroundVisibleEv@Qt_6 6.6.1
 _ZNK6QChart19isDropShadowEnabledEv@Qt_6 6.6.1
 _ZNK6QChart20animationEasingCurveEv@Qt_6 6.6.1
 _ZNK6QChart21plotAreaBackgroundPenEv@Qt_6 6.6.1
 _ZNK6QChart23plotAreaBackgroundBrushEv@Qt_6 6.6.1
 _ZNK6QChart27isPlotAreaBackgroundVisibleEv@Qt_6 6.6.1
 _ZNK6QChart4axesE6QFlagsIN2Qt11OrientationEEP15QAbstractSeries@Qt_6 6.6.1
 _ZNK6QChart5axisXEP15QAbstractSeries@Qt_6 6.6.1
 _ZNK6QChart5axisYEP15QAbstractSeries@Qt_6 6.6.1
 _ZNK6QChart5themeEv@Qt_6 6.6.1
 _ZNK6QChart5titleEv@Qt_6 6.6.1
 _ZNK6QChart6legendEv@Qt_6 6.6.1
 _ZNK6QChart6localeEv@Qt_6 6.6.1
 _ZNK6QChart6seriesEv@Qt_6 6.6.1
 _ZNK6QChart7marginsEv@Qt_6 6.6.1
 _ZNK6QChart8plotAreaEv@Qt_6 6.6.1
 _ZNK6QChart9chartTypeEv@Qt_6 6.6.1
 _ZNK6QChart9titleFontEv@Qt_6 6.6.1
 _ZNK7QBarSet10labelBrushEv@Qt_6 6.6.1
 _ZNK7QBarSet10metaObjectEv@Qt_6 6.6.1
 _ZNK7QBarSet12selectedBarsEv@Qt_6 6.6.1
 _ZNK7QBarSet13isBarSelectedEi@Qt_6 6.6.1
 _ZNK7QBarSet13selectedColorEv@Qt_6 6.6.1
 _ZNK7QBarSet2atEi@Qt_6 6.6.1
 _ZNK7QBarSet3penEv@Qt_6 6.6.1
 _ZNK7QBarSet3sumEv@Qt_6 6.6.1
 _ZNK7QBarSet5brushEv@Qt_6 6.6.1
 _ZNK7QBarSet5countEv@Qt_6 6.6.1
 _ZNK7QBarSet5labelEv@Qt_6 6.6.1
 _ZNK7QBarSet9labelFontEv@Qt_6 6.6.1
 _ZNK7QBarSetixEi@Qt_6 6.6.1
 _ZNK7QBoxSet10metaObjectEv@Qt_6 6.6.1
 _ZNK7QBoxSet2atEi@Qt_6 6.6.1
 _ZNK7QBoxSet3penEv@Qt_6 6.6.1
 _ZNK7QBoxSet5brushEv@Qt_6 6.6.1
 _ZNK7QBoxSet5countEv@Qt_6 6.6.1
 _ZNK7QBoxSet5labelEv@Qt_6 6.6.1
 _ZNK7QBoxSetixEi@Qt_6 6.6.1
 _ZNK7QLegend10labelBrushEv@Qt_6 6.6.1
 _ZNK7QLegend10labelColorEv@Qt_6 6.6.1
 _ZNK7QLegend10metaObjectEv@Qt_6 6.6.1
 _ZNK7QLegend11markerShapeEv@Qt_6 6.6.1
 _ZNK7QLegend12showToolTipsEv@Qt_6 6.6.1
 _ZNK7QLegend13isInteractiveEv@Qt_6 6.6.1
 _ZNK7QLegend19isBackgroundVisibleEv@Qt_6 6.6.1
 _ZNK7QLegend3penEv@Qt_6 6.6.1
 _ZNK7QLegend4fontEv@Qt_6 6.6.1
 _ZNK7QLegend5brushEv@Qt_6 6.6.1
 _ZNK7QLegend7markersEP15QAbstractSeries@Qt_6 6.6.1
 _ZNK7QLegend9alignmentEv@Qt_6 6.6.1
 _ZNK7XYChart10metaObjectEv@Qt_6_PRIVATE_API 6.6.1
 _ZNK8XYDomain10metaObjectEv@Qt_6_PRIVATE_API 6.6.1
 _ZNK8XYDomain20calculateDomainPointERK7QPointF@Qt_6_PRIVATE_API 6.6.1
 _ZNK8XYDomain22calculateGeometryPointERK7QPointFRb@Qt_6_PRIVATE_API 6.6.1
 _ZNK8XYDomain23calculateGeometryPointsERK5QListI7QPointFE@Qt_6_PRIVATE_API 6.6.1
 _ZNK9ChartItem10metaObjectEv@Qt_6_PRIVATE_API 6.6.1
 _ZNK9ChartItem6domainEv@Qt_6_PRIVATE_API 6.6.1
 _ZNK9QPieSlice10isExplodedEv@Qt_6 6.6.1
 _ZNK9QPieSlice10labelBrushEv@Qt_6 6.6.1
 _ZNK9QPieSlice10metaObjectEv@Qt_6 6.6.1
 _ZNK9QPieSlice10percentageEv@Qt_6 6.6.1
 _ZNK9QPieSlice10startAngleEv@Qt_6 6.6.1
 _ZNK9QPieSlice14isLabelVisibleEv@Qt_6 6.6.1
 _ZNK9QPieSlice20labelArmLengthFactorEv@Qt_6 6.6.1
 _ZNK9QPieSlice21explodeDistanceFactorEv@Qt_6 6.6.1
 _ZNK9QPieSlice3penEv@Qt_6 6.6.1
 _ZNK9QPieSlice5brushEv@Qt_6 6.6.1
 _ZNK9QPieSlice5labelEv@Qt_6 6.6.1
 _ZNK9QPieSlice5valueEv@Qt_6 6.6.1
 _ZNK9QPieSlice6seriesEv@Qt_6 6.6.1
 _ZNK9QPieSlice9angleSpanEv@Qt_6 6.6.1
 _ZNK9QPieSlice9labelFontEv@Qt_6 6.6.1
 _ZNK9QXYSeries10markerSizeEv@Qt_6 6.6.1
 _ZNK9QXYSeries10metaObjectEv@Qt_6 6.6.1
 _ZNK9QXYSeries11lightMarkerEv@Qt_6 6.6.1
 _ZNK9QXYSeries12pointsVectorEv@Qt_6 6.6.1
 _ZNK9QXYSeries13pointsVisibleEv@Qt_6 6.6.1
 _ZNK9QXYSeries13selectedColorEv@Qt_6 6.6.1
 _ZNK9QXYSeries14bestFitLinePenEv@Qt_6 6.6.1
 _ZNK9QXYSeries14selectedPointsEv@Qt_6 6.6.1
 _ZNK9QXYSeries15pointLabelsFontEv@Qt_6 6.6.1
 _ZNK9QXYSeries16bestFitLineColorEv@Qt_6 6.6.1
 _ZNK9QXYSeries16pointLabelsColorEv@Qt_6 6.6.1
 _ZNK9QXYSeries17pointLabelsFormatEv@Qt_6 6.6.1
 _ZNK9QXYSeries18bestFitLineVisibleEv@Qt_6 6.6.1
 _ZNK9QXYSeries18pointConfigurationEi@Qt_6 6.6.1
 _ZNK9QXYSeries18pointLabelsVisibleEv@Qt_6 6.6.1
 _ZNK9QXYSeries19bestFitLineEquationERb@Qt_6 6.6.1
 _ZNK9QXYSeries19pointLabelsClippingEv@Qt_6 6.6.1
 _ZNK9QXYSeries19pointsConfigurationEv@Qt_6 6.6.1
 _ZNK9QXYSeries19selectedLightMarkerEv@Qt_6 6.6.1
 _ZNK9QXYSeries2atEi@Qt_6 6.6.1
 _ZNK9QXYSeries3penEv@Qt_6 6.6.1
 _ZNK9QXYSeries5brushEv@Qt_6 6.6.1
 _ZNK9QXYSeries5colorEv@Qt_6 6.6.1
 _ZNK9QXYSeries5countEv@Qt_6 6.6.1
 _ZNK9QXYSeries6pointsEv@Qt_6 6.6.1
 _ZSt19piecewise_construct@Qt_6 6.6.1
 _ZTI10ChartTitle@Qt_6_PRIVATE_API 6.6.1
 _ZTI10QBarSeries@Qt_6 6.6.1
 _ZTI10QChartView@Qt_6 6.6.1
 _ZTI10QColorAxis@Qt_6 6.6.1
 _ZTI10QPieSeries@Qt_6 6.6.1
 _ZTI10QValueAxis@Qt_6 6.6.1
 _ZTI11BoxWhiskers@Qt_6_PRIVATE_API 6.6.1
 _ZTI11Candlestick@Qt_6_PRIVATE_API 6.6.1
 _ZTI11ChartMarkerI20QGraphicsPolygonItemE@Qt_6_PRIVATE_API 6.6.1
 _ZTI11LogXYDomain@Qt_6_PRIVATE_API 6.6.1
 _ZTI11PolarDomain@Qt_6_PRIVATE_API 6.6.1
 _ZTI11QAreaSeries@Qt_6 6.6.1
 _ZTI11QLineSeries@Qt_6 6.6.1
 _ZTI11QPolarChart@Qt_6 6.6.1
 _ZTI11XLogYDomain@Qt_6_PRIVATE_API 6.6.1
 _ZTI11XYAnimation@Qt_6_PRIVATE_API 6.6.1
 _ZTI12BarAnimation@Qt_6_PRIVATE_API 6.6.1
 _ZTI12BarChartItem@Qt_6_PRIVATE_API 6.6.1
 _ZTI12ChartDataSet@Qt_6_PRIVATE_API 6.6.1
 _ZTI12ChartElement@Qt_6_PRIVATE_API 6.6.1
 _ZTI12LegendLayout@Qt_6_PRIVATE_API 6.6.1
 _ZTI12PieAnimation@Qt_6_PRIVATE_API 6.6.1
 _ZTI12PieChartItem@Qt_6_PRIVATE_API 6.6.1
 _ZTI12PieSliceItem@Qt_6_PRIVATE_API 6.6.1
 _ZTI12ScrollTicker@Qt_6_PRIVATE_API 6.6.1
 _ZTI12VerticalAxis@Qt_6_PRIVATE_API 6.6.1
 _ZTI13AreaChartItem@Qt_6_PRIVATE_API 6.6.1
 _ZTI13AxisAnimation@Qt_6_PRIVATE_API 6.6.1
 _ZTI13LineChartItem@Qt_6_PRIVATE_API 6.6.1
 _ZTI13QAbstractAxis@Qt_6 6.6.1
 _ZTI13QCategoryAxis@Qt_6 6.6.1
 _ZTI13QDateTimeAxis@Qt_6 6.6.1
 _ZTI13QLegendMarker@Qt_6 6.6.1
 _ZTI13QLogValueAxis@Qt_6 6.6.1
 _ZTI13QSplineSeries@Qt_6 6.6.1
 _ZTI13XYPolarDomain@Qt_6_PRIVATE_API 6.6.1
 _ZTI14AbstractDomain@Qt_6_PRIVATE_API 6.6.1
 _ZTI14ChartAnimation@Qt_6_PRIVATE_API 6.6.1
 _ZTI14ChartPresenter@Qt_6_PRIVATE_API 6.6.1
 _ZTI14HorizontalAxis@Qt_6_PRIVATE_API 6.6.1
 _ZTI14LegendScroller@Qt_6_PRIVATE_API 6.6.1
 _ZTI14LogXLogYDomain@Qt_6_PRIVATE_API 6.6.1
 _ZTI14PolarChartAxis@Qt_6_PRIVATE_API 6.6.1
 _ZTI14QBarSetPrivate@Qt_6_PRIVATE_API 6.6.1
 _ZTI14QBoxPlotSeries@Qt_6 6.6.1
 _ZTI14QBoxSetPrivate@Qt_6_PRIVATE_API 6.6.1
 _ZTI14QLegendPrivate@Qt_6_PRIVATE_API 6.6.1
 _ZTI14QScatterSeries@Qt_6 6.6.1
 _ZTI14QXYModelMapper@Qt_6 6.6.1
 _ZTI14ValueAxisLabel@Qt_6_PRIVATE_API 6.6.1
 _ZTI15ChartBackground@Qt_6_PRIVATE_API 6.6.1
 _ZTI15ChartColorAxisX@Qt_6_PRIVATE_API 6.6.1
 _ZTI15ChartColorAxisY@Qt_6_PRIVATE_API 6.6.1
 _ZTI15ChartValueAxisX@Qt_6_PRIVATE_API 6.6.1
 _ZTI15ChartValueAxisY@Qt_6_PRIVATE_API 6.6.1
 _ZTI15QAbstractSeries@Qt_6 6.6.1
 _ZTI15QBarModelMapper@Qt_6 6.6.1
 _ZTI15QCandlestickSet@Qt_6 6.6.1
 _ZTI15QHXYModelMapper@Qt_6 6.6.1
 _ZTI15QPieModelMapper@Qt_6 6.6.1
 _ZTI15QVXYModelMapper@Qt_6 6.6.1
 _ZTI15QXYLegendMarker@Qt_6 6.6.1
 _ZTI15SplineAnimation@Qt_6_PRIVATE_API 6.6.1
 _ZTI15SplineChartItem@Qt_6_PRIVATE_API 6.6.1
 _ZTI16BoxPlotAnimation@Qt_6_PRIVATE_API 6.6.1
 _ZTI16BoxPlotChartItem@Qt_6_PRIVATE_API 6.6.1
 _ZTI16ChartAxisElement@Qt_6_PRIVATE_API 6.6.1
 _ZTI16LegendMarkerItem@Qt_6_PRIVATE_API 6.6.1
 _ZTI16LogXYPolarDomain@Qt_6_PRIVATE_API 6.6.1
 _ZTI16PolarChartLayout@Qt_6_PRIVATE_API 6.6.1
 _ZTI16QBarCategoryAxis@Qt_6 6.6.1
 _ZTI16QBarLegendMarker@Qt_6 6.6.1
 _ZTI16QHBarModelMapper@Qt_6 6.6.1
 _ZTI16QHPieModelMapper@Qt_6 6.6.1
 _ZTI16QOpenGLFunctions@Qt_6 6.6.1
 _ZTI16QPieLegendMarker@Qt_6 6.6.1
 _ZTI16QPieSlicePrivate@Qt_6_PRIVATE_API 6.6.1
 _ZTI16QVBarModelMapper@Qt_6 6.6.1
 _ZTI16QVPieModelMapper@Qt_6 6.6.1
 _ZTI16QXYSeriesPrivate@Qt_6_PRIVATE_API 6.6.1
 _ZTI16ScatterAnimation@Qt_6_PRIVATE_API 6.6.1
 _ZTI16ScatterChartItem@Qt_6_PRIVATE_API 6.6.1
 _ZTI16XLogYPolarDomain@Qt_6_PRIVATE_API 6.6.1
 _ZTI17ChartThemeManager@Qt_6_PRIVATE_API 6.6.1
 _ZTI17DateTimeAxisLabel@Qt_6_PRIVATE_API 6.6.1
 _ZTI17EditableAxisLabel@Qt_6_PRIVATE_API 6.6.1
 _ZTI17PieSliceAnimation@Qt_6_PRIVATE_API 6.6.1
 _ZTI17QAreaLegendMarker@Qt_6 6.6.1
 _ZTI17QBarSeriesPrivate@Qt_6_PRIVATE_API 6.6.1
 _ZTI17QColorAxisPrivate@Qt_6_PRIVATE_API 6.6.1
 _ZTI17QPercentBarSeries@Qt_6 6.6.1
 _ZTI17QPieSeriesPrivate@Qt_6_PRIVATE_API 6.6.1
 _ZTI17QStackedBarSeries@Qt_6 6.6.1
 _ZTI17QValueAxisPrivate@Qt_6_PRIVATE_API 6.6.1
 _ZTI18CartesianChartAxis@Qt_6_PRIVATE_API 6.6.1
 _ZTI18ChartCategoryAxisX@Qt_6_PRIVATE_API 6.6.1
 _ZTI18ChartCategoryAxisY@Qt_6_PRIVATE_API 6.6.1
 _ZTI18ChartDateTimeAxisX@Qt_6_PRIVATE_API 6.6.1
 _ZTI18ChartDateTimeAxisY@Qt_6_PRIVATE_API 6.6.1
 _ZTI18ChartLogValueAxisX@Qt_6_PRIVATE_API 6.6.1
 _ZTI18ChartLogValueAxisY@Qt_6_PRIVATE_API 6.6.1
 _ZTI18QAbstractBarSeries@Qt_6 6.6.1
 _ZTI18QAreaSeriesPrivate@Qt_6_PRIVATE_API 6.6.1
 _ZTI18QCandlestickSeries@Qt_6 6.6.1
 _ZTI18QLineSeriesPrivate@Qt_6_PRIVATE_API 6.6.1
 _ZTI19AbstractChartLayout@Qt_6_PRIVATE_API 6.6.1
 _ZTI19LogXLogYPolarDomain@Qt_6_PRIVATE_API 6.6.1
 _ZTI19PercentBarChartItem@Qt_6_PRIVATE_API 6.6.1
 _ZTI19QBoxPlotModelMapper@Qt_6 6.6.1
 _ZTI19StackedBarChartItem@Qt_6_PRIVATE_API 6.6.1
 _ZTI20AbstractBarChartItem@Qt_6_PRIVATE_API 6.6.1
 _ZTI20BoxWhiskersAnimation@Qt_6_PRIVATE_API 6.6.1
 _ZTI20CandlestickAnimation@Qt_6_PRIVATE_API 6.6.1
 _ZTI20CandlestickChartItem@Qt_6_PRIVATE_API 6.6.1
 _ZTI20CartesianChartLayout@Qt_6_PRIVATE_API 6.6.1
 _ZTI20PolarChartAxisRadial@Qt_6_PRIVATE_API 6.6.1
 _ZTI20QAbstractAxisPrivate@Qt_6_PRIVATE_API 6.6.1
 _ZTI20QBoxPlotLegendMarker@Qt_6 6.6.1
 _ZTI20QCategoryAxisPrivate@Qt_6_PRIVATE_API 6.6.1
 _ZTI20QDateTimeAxisPrivate@Qt_6_PRIVATE_API 6.6.1
 _ZTI20QHBoxPlotModelMapper@Qt_6 6.6.1
 _ZTI20QHorizontalBarSeries@Qt_6 6.6.1
 _ZTI20QLegendMarkerPrivate@Qt_6_PRIVATE_API 6.6.1
 _ZTI20QLogValueAxisPrivate@Qt_6_PRIVATE_API 6.6.1
 _ZTI20QSplineSeriesPrivate@Qt_6_PRIVATE_API 6.6.1
 _ZTI20QVBoxPlotModelMapper@Qt_6 6.6.1
 _ZTI21ChartBarCategoryAxisX@Qt_6_PRIVATE_API 6.6.1
 _ZTI21ChartBarCategoryAxisY@Qt_6_PRIVATE_API 6.6.1
 _ZTI21GLXYSeriesDataManager@Qt_6_PRIVATE_API 6.6.1
 _ZTI21PolarChartAxisAngular@Qt_6_PRIVATE_API 6.6.1
 _ZTI21QBoxPlotSeriesPrivate@Qt_6_PRIVATE_API 6.6.1
 _ZTI21QScatterSeriesPrivate@Qt_6_PRIVATE_API 6.6.1
 _ZTI21QXYModelMapperPrivate@Qt_6_PRIVATE_API 6.6.1
 _ZTI22HorizontalBarChartItem@Qt_6_PRIVATE_API 6.6.1
 _ZTI22QAbstractSeriesPrivate@Qt_6_PRIVATE_API 6.6.1
 _ZTI22QBarModelMapperPrivate@Qt_6_PRIVATE_API 6.6.1
 _ZTI22QCandlestickSetPrivate@Qt_6_PRIVATE_API 6.6.1
 _ZTI22QPieModelMapperPrivate@Qt_6_PRIVATE_API 6.6.1
 _ZTI22QXYLegendMarkerPrivate@Qt_6_PRIVATE_API 6.6.1
 _ZTI23QBarCategoryAxisPrivate@Qt_6_PRIVATE_API 6.6.1
 _ZTI23QBarLegendMarkerPrivate@Qt_6_PRIVATE_API 6.6.1
 _ZTI23QCandlestickModelMapper@Qt_6 6.6.1
 _ZTI23QPieLegendMarkerPrivate@Qt_6_PRIVATE_API 6.6.1
 _ZTI24QAreaLegendMarkerPrivate@Qt_6_PRIVATE_API 6.6.1
 _ZTI24QCandlestickLegendMarker@Qt_6 6.6.1
 _ZTI24QHCandlestickModelMapper@Qt_6 6.6.1
 _ZTI24QPercentBarSeriesPrivate@Qt_6_PRIVATE_API 6.6.1
 _ZTI24QStackedBarSeriesPrivate@Qt_6_PRIVATE_API 6.6.1
 _ZTI24QVCandlestickModelMapper@Qt_6 6.6.1
 _ZTI25PolarChartValueAxisRadial@Qt_6_PRIVATE_API 6.6.1
 _ZTI25QAbstractBarSeriesPrivate@Qt_6_PRIVATE_API 6.6.1
 _ZTI25QCandlestickSeriesPrivate@Qt_6_PRIVATE_API 6.6.1
 _ZTI26PolarChartValueAxisAngular@Qt_6_PRIVATE_API 6.6.1
 _ZTI26QBoxPlotModelMapperPrivate@Qt_6_PRIVATE_API 6.6.1
 _ZTI27QBoxPlotLegendMarkerPrivate@Qt_6_PRIVATE_API 6.6.1
 _ZTI27QHorizontalBarSeriesPrivate@Qt_6_PRIVATE_API 6.6.1
 _ZTI27QHorizontalPercentBarSeries@Qt_6 6.6.1
 _ZTI27QHorizontalStackedBarSeries@Qt_6 6.6.1
 _ZTI28PolarChartCategoryAxisRadial@Qt_6_PRIVATE_API 6.6.1
 _ZTI28PolarChartDateTimeAxisRadial@Qt_6_PRIVATE_API 6.6.1
 _ZTI28PolarChartLogValueAxisRadial@Qt_6_PRIVATE_API 6.6.1
 _ZTI29CandlestickBodyWicksAnimation@Qt_6_PRIVATE_API 6.6.1
 _ZTI29HorizontalPercentBarChartItem@Qt_6_PRIVATE_API 6.6.1
 _ZTI29HorizontalStackedBarChartItem@Qt_6_PRIVATE_API 6.6.1
 _ZTI29PolarChartCategoryAxisAngular@Qt_6_PRIVATE_API 6.6.1
 _ZTI29PolarChartDateTimeAxisAngular@Qt_6_PRIVATE_API 6.6.1
 _ZTI29PolarChartLogValueAxisAngular@Qt_6_PRIVATE_API 6.6.1
 _ZTI30QCandlestickModelMapperPrivate@Qt_6_PRIVATE_API 6.6.1
 _ZTI31QCandlestickLegendMarkerPrivate@Qt_6_PRIVATE_API 6.6.1
 _ZTI34QHorizontalPercentBarSeriesPrivate@Qt_6_PRIVATE_API 6.6.1
 _ZTI34QHorizontalStackedBarSeriesPrivate@Qt_6_PRIVATE_API 6.6.1
 _ZTI3Bar@Qt_6_PRIVATE_API 6.6.1
 _ZTI6QChart@Qt_6 6.6.1
 _ZTI7QBarSet@Qt_6 6.6.1
 _ZTI7QBoxSet@Qt_6 6.6.1
 _ZTI7QLegend@Qt_6 6.6.1
 _ZTI7XYChart@Qt_6_PRIVATE_API 6.6.1
 _ZTI8Scroller@Qt_6_PRIVATE_API 6.6.1
 _ZTI8XYDomain@Qt_6_PRIVATE_API 6.6.1
 _ZTI9ChartItem@Qt_6_PRIVATE_API 6.6.1
 _ZTI9QPieSlice@Qt_6 6.6.1
 _ZTI9QXYSeries@Qt_6 6.6.1
 _ZTIZN9QMetaType17registerConverterI5QHashIN9QXYSeries18PointConfigurationE8QVariantE9QIterableI16QMetaAssociationEN9QtPrivate34QAssociativeIterableConvertFunctorIS5_EEEEbT1_EUlPKvPvE_@Qt_6 6.6.1
 _ZTIZN9QMetaType17registerConverterI5QHashIiS1_IN9QXYSeries18PointConfigurationE8QVariantEE9QIterableI16QMetaAssociationEN9QtPrivate34QAssociativeIterableConvertFunctorIS6_EEEEbT1_EUlPKvPvE_@Qt_6 6.6.1
 _ZTIZN9QMetaType17registerConverterI5QListI6QRectFE9QIterableI13QMetaSequenceEN9QtPrivate33QSequentialIterableConvertFunctorIS3_EEEEbT1_EUlPKvPvE_@Qt_6 6.6.1
 _ZTIZN9QMetaType17registerConverterI5QListI7QPointFE9QIterableI13QMetaSequenceEN9QtPrivate33QSequentialIterableConvertFunctorIS3_EEEEbT1_EUlPKvPvE_@Qt_6 6.6.1
 _ZTIZN9QMetaType17registerConverterI5QListIP15QCandlestickSetE9QIterableI13QMetaSequenceEN9QtPrivate33QSequentialIterableConvertFunctorIS4_EEEEbT1_EUlPKvPvE_@Qt_6 6.6.1
 _ZTIZN9QMetaType17registerConverterI5QListIP7QBarSetE9QIterableI13QMetaSequenceEN9QtPrivate33QSequentialIterableConvertFunctorIS4_EEEEbT1_EUlPKvPvE_@Qt_6 6.6.1
 _ZTIZN9QMetaType17registerConverterI5QListIP7QBoxSetE9QIterableI13QMetaSequenceEN9QtPrivate33QSequentialIterableConvertFunctorIS4_EEEEbT1_EUlPKvPvE_@Qt_6 6.6.1
 _ZTIZN9QMetaType17registerConverterI5QListIP9QPieSliceE9QIterableI13QMetaSequenceEN9QtPrivate33QSequentialIterableConvertFunctorIS4_EEEEbT1_EUlPKvPvE_@Qt_6 6.6.1
 _ZTIZN9QMetaType17registerConverterI5QListIdE9QIterableI13QMetaSequenceEN9QtPrivate33QSequentialIterableConvertFunctorIS2_EEEEbT1_EUlPKvPvE_@Qt_6 6.6.1
 _ZTIZN9QMetaType17registerConverterI5QListIiE9QIterableI13QMetaSequenceEN9QtPrivate33QSequentialIterableConvertFunctorIS2_EEEEbT1_EUlPKvPvE_@Qt_6 6.6.1
 _ZTIZN9QMetaType17registerConverterISt4pairI5QListI7QPointFES4_EN17QtMetaTypePrivate25QPairVariantInterfaceImplENS6_35QPairVariantInterfaceConvertFunctorIS5_EEEEbT1_EUlPKvPvE_@Qt_6 6.6.1
 _ZTIZN9QMetaType19registerMutableViewI5QHashIN9QXYSeries18PointConfigurationE8QVariantE9QIterableI16QMetaAssociationEN9QtPrivate38QAssociativeIterableMutableViewFunctorIS5_EEEEbT1_EUlPvSD_E_@Qt_6 6.6.1
 _ZTIZN9QMetaType19registerMutableViewI5QHashIiS1_IN9QXYSeries18PointConfigurationE8QVariantEE9QIterableI16QMetaAssociationEN9QtPrivate38QAssociativeIterableMutableViewFunctorIS6_EEEEbT1_EUlPvSE_E_@Qt_6 6.6.1
 _ZTIZN9QMetaType19registerMutableViewI5QListI6QRectFE9QIterableI13QMetaSequenceEN9QtPrivate37QSequentialIterableMutableViewFunctorIS3_EEEEbT1_EUlPvSB_E_@Qt_6 6.6.1
 _ZTIZN9QMetaType19registerMutableViewI5QListI7QPointFE9QIterableI13QMetaSequenceEN9QtPrivate37QSequentialIterableMutableViewFunctorIS3_EEEEbT1_EUlPvSB_E_@Qt_6 6.6.1
 _ZTIZN9QMetaType19registerMutableViewI5QListIP15QCandlestickSetE9QIterableI13QMetaSequenceEN9QtPrivate37QSequentialIterableMutableViewFunctorIS4_EEEEbT1_EUlPvSC_E_@Qt_6 6.6.1
 _ZTIZN9QMetaType19registerMutableViewI5QListIP7QBarSetE9QIterableI13QMetaSequenceEN9QtPrivate37QSequentialIterableMutableViewFunctorIS4_EEEEbT1_EUlPvSC_E_@Qt_6 6.6.1
 _ZTIZN9QMetaType19registerMutableViewI5QListIP7QBoxSetE9QIterableI13QMetaSequenceEN9QtPrivate37QSequentialIterableMutableViewFunctorIS4_EEEEbT1_EUlPvSC_E_@Qt_6 6.6.1
 _ZTIZN9QMetaType19registerMutableViewI5QListIP9QPieSliceE9QIterableI13QMetaSequenceEN9QtPrivate37QSequentialIterableMutableViewFunctorIS4_EEEEbT1_EUlPvSC_E_@Qt_6 6.6.1
 _ZTIZN9QMetaType19registerMutableViewI5QListIdE9QIterableI13QMetaSequenceEN9QtPrivate37QSequentialIterableMutableViewFunctorIS2_EEEEbT1_EUlPvSA_E_@Qt_6 6.6.1
 _ZTIZN9QMetaType19registerMutableViewI5QListIiE9QIterableI13QMetaSequenceEN9QtPrivate37QSequentialIterableMutableViewFunctorIS2_EEEEbT1_EUlPvSA_E_@Qt_6 6.6.1
 _ZTS10ChartTitle@Qt_6_PRIVATE_API 6.6.1
 _ZTS10QBarSeries@Qt_6 6.6.1
 _ZTS10QChartView@Qt_6 6.6.1
 _ZTS10QColorAxis@Qt_6 6.6.1
 _ZTS10QPieSeries@Qt_6 6.6.1
 _ZTS10QValueAxis@Qt_6 6.6.1
 _ZTS10StarMarker@Qt_6_PRIVATE_API 6.6.1
 _ZTS11BoxWhiskers@Qt_6_PRIVATE_API 6.6.1
 _ZTS11Candlestick@Qt_6_PRIVATE_API 6.6.1
 _ZTS11ChartMarkerI17QGraphicsRectItemE@Qt_6_PRIVATE_API 6.6.1
 _ZTS11ChartMarkerI20QGraphicsEllipseItemE@Qt_6_PRIVATE_API 6.6.1
 _ZTS11ChartMarkerI20QGraphicsPolygonItemE@Qt_6_PRIVATE_API 6.6.1
 _ZTS11LogXYDomain@Qt_6_PRIVATE_API 6.6.1
 _ZTS11PolarDomain@Qt_6_PRIVATE_API 6.6.1
 _ZTS11QAreaSeries@Qt_6 6.6.1
 _ZTS11QLineSeries@Qt_6 6.6.1
 _ZTS11QPolarChart@Qt_6 6.6.1
 _ZTS11XLogYDomain@Qt_6_PRIVATE_API 6.6.1
 _ZTS11XYAnimation@Qt_6_PRIVATE_API 6.6.1
 _ZTS12BarAnimation@Qt_6_PRIVATE_API 6.6.1
 _ZTS12BarChartItem@Qt_6_PRIVATE_API 6.6.1
 _ZTS12ChartDataSet@Qt_6_PRIVATE_API 6.6.1
 _ZTS12ChartElement@Qt_6_PRIVATE_API 6.6.1
 _ZTS12LegendLayout@Qt_6_PRIVATE_API 6.6.1
 _ZTS12PieAnimation@Qt_6_PRIVATE_API 6.6.1
 _ZTS12PieChartItem@Qt_6_PRIVATE_API 6.6.1
 _ZTS12PieSliceItem@Qt_6_PRIVATE_API 6.6.1
 _ZTS12ScrollTicker@Qt_6_PRIVATE_API 6.6.1
 _ZTS12VerticalAxis@Qt_6_PRIVATE_API 6.6.1
 _ZTS13AreaBoundItem@Qt_6_PRIVATE_API 6.6.1
 _ZTS13AreaChartItem@Qt_6_PRIVATE_API 6.6.1
 _ZTS13AxisAnimation@Qt_6_PRIVATE_API 6.6.1
 _ZTS13LineArrowItem@Qt_6_PRIVATE_API 6.6.1
 _ZTS13LineChartItem@Qt_6_PRIVATE_API 6.6.1
 _ZTS13QAbstractAxis@Qt_6 6.6.1
 _ZTS13QCategoryAxis@Qt_6 6.6.1
 _ZTS13QDateTimeAxis@Qt_6 6.6.1
 _ZTS13QLegendMarker@Qt_6 6.6.1
 _ZTS13QLogValueAxis@Qt_6 6.6.1
 _ZTS13QSplineSeries@Qt_6 6.6.1
 _ZTS13XYPolarDomain@Qt_6_PRIVATE_API 6.6.1
 _ZTS14AbstractDomain@Qt_6_PRIVATE_API 6.6.1
 _ZTS14ChartAnimation@Qt_6_PRIVATE_API 6.6.1
 _ZTS14ChartPresenter@Qt_6_PRIVATE_API 6.6.1
 _ZTS14HorizontalAxis@Qt_6_PRIVATE_API 6.6.1
 _ZTS14LegendScroller@Qt_6_PRIVATE_API 6.6.1
 _ZTS14LogXLogYDomain@Qt_6_PRIVATE_API 6.6.1
 _ZTS14PentagonMarker@Qt_6_PRIVATE_API 6.6.1
 _ZTS14PolarChartAxis@Qt_6_PRIVATE_API 6.6.1
 _ZTS14QBarSetPrivate@Qt_6_PRIVATE_API 6.6.1
 _ZTS14QBoxPlotSeries@Qt_6 6.6.1
 _ZTS14QBoxSetPrivate@Qt_6_PRIVATE_API 6.6.1
 _ZTS14QLegendPrivate@Qt_6_PRIVATE_API 6.6.1
 _ZTS14QScatterSeries@Qt_6 6.6.1
 _ZTS14QXYModelMapper@Qt_6 6.6.1
 _ZTS14TriangleMarker@Qt_6_PRIVATE_API 6.6.1
 _ZTS14ValueAxisLabel@Qt_6_PRIVATE_API 6.6.1
 _ZTS15ChartBackground@Qt_6_PRIVATE_API 6.6.1
 _ZTS15ChartColorAxisX@Qt_6_PRIVATE_API 6.6.1
 _ZTS15ChartColorAxisY@Qt_6_PRIVATE_API 6.6.1
 _ZTS15ChartValueAxisX@Qt_6_PRIVATE_API 6.6.1
 _ZTS15ChartValueAxisY@Qt_6_PRIVATE_API 6.6.1
 _ZTS15QAbstractSeries@Qt_6 6.6.1
 _ZTS15QBarModelMapper@Qt_6 6.6.1
 _ZTS15QCandlestickSet@Qt_6 6.6.1
 _ZTS15QHXYModelMapper@Qt_6 6.6.1
 _ZTS15QPieModelMapper@Qt_6 6.6.1
 _ZTS15QVXYModelMapper@Qt_6 6.6.1
 _ZTS15QXYLegendMarker@Qt_6 6.6.1
 _ZTS15SplineAnimation@Qt_6_PRIVATE_API 6.6.1
 _ZTS15SplineChartItem@Qt_6_PRIVATE_API 6.6.1
 _ZTS16BoxPlotAnimation@Qt_6_PRIVATE_API 6.6.1
 _ZTS16BoxPlotChartItem@Qt_6_PRIVATE_API 6.6.1
 _ZTS16ChartAxisElement@Qt_6_PRIVATE_API 6.6.1
 _ZTS16LegendMarkerItem@Qt_6_PRIVATE_API 6.6.1
 _ZTS16LogXYPolarDomain@Qt_6_PRIVATE_API 6.6.1
 _ZTS16PolarChartLayout@Qt_6_PRIVATE_API 6.6.1
 _ZTS16QBarCategoryAxis@Qt_6 6.6.1
 _ZTS16QBarLegendMarker@Qt_6 6.6.1
 _ZTS16QHBarModelMapper@Qt_6 6.6.1
 _ZTS16QHPieModelMapper@Qt_6 6.6.1
 _ZTS16QOpenGLFunctions@Qt_6 6.6.1
 _ZTS16QPieLegendMarker@Qt_6 6.6.1
 _ZTS16QPieSlicePrivate@Qt_6_PRIVATE_API 6.6.1
 _ZTS16QVBarModelMapper@Qt_6 6.6.1
 _ZTS16QVPieModelMapper@Qt_6 6.6.1
 _ZTS16QXYSeriesPrivate@Qt_6_PRIVATE_API 6.6.1
 _ZTS16ScatterAnimation@Qt_6_PRIVATE_API 6.6.1
 _ZTS16ScatterChartItem@Qt_6_PRIVATE_API 6.6.1
 _ZTS16XLogYPolarDomain@Qt_6_PRIVATE_API 6.6.1
 _ZTS17ChartThemeManager@Qt_6_PRIVATE_API 6.6.1
 _ZTS17DateTimeAxisLabel@Qt_6_PRIVATE_API 6.6.1
 _ZTS17EditableAxisLabel@Qt_6_PRIVATE_API 6.6.1
 _ZTS17PieSliceAnimation@Qt_6_PRIVATE_API 6.6.1
 _ZTS17QAreaLegendMarker@Qt_6 6.6.1
 _ZTS17QBarSeriesPrivate@Qt_6_PRIVATE_API 6.6.1
 _ZTS17QColorAxisPrivate@Qt_6_PRIVATE_API 6.6.1
 _ZTS17QPercentBarSeries@Qt_6 6.6.1
 _ZTS17QPieSeriesPrivate@Qt_6_PRIVATE_API 6.6.1
 _ZTS17QStackedBarSeries@Qt_6 6.6.1
 _ZTS17QValueAxisPrivate@Qt_6_PRIVATE_API 6.6.1
 _ZTS18CartesianChartAxis@Qt_6_PRIVATE_API 6.6.1
 _ZTS18ChartCategoryAxisX@Qt_6_PRIVATE_API 6.6.1
 _ZTS18ChartCategoryAxisY@Qt_6_PRIVATE_API 6.6.1
 _ZTS18ChartDateTimeAxisX@Qt_6_PRIVATE_API 6.6.1
 _ZTS18ChartDateTimeAxisY@Qt_6_PRIVATE_API 6.6.1
 _ZTS18ChartLogValueAxisX@Qt_6_PRIVATE_API 6.6.1
 _ZTS18ChartLogValueAxisY@Qt_6_PRIVATE_API 6.6.1
 _ZTS18QAbstractBarSeries@Qt_6 6.6.1
 _ZTS18QAreaSeriesPrivate@Qt_6_PRIVATE_API 6.6.1
 _ZTS18QCandlestickSeries@Qt_6 6.6.1
 _ZTS18QLineSeriesPrivate@Qt_6_PRIVATE_API 6.6.1
 _ZTS19AbstractChartLayout@Qt_6_PRIVATE_API 6.6.1
 _ZTS19LogXLogYPolarDomain@Qt_6_PRIVATE_API 6.6.1
 _ZTS19PercentBarChartItem@Qt_6_PRIVATE_API 6.6.1
 _ZTS19QBoxPlotModelMapper@Qt_6 6.6.1
 _ZTS19StackedBarChartItem@Qt_6_PRIVATE_API 6.6.1
 _ZTS20AbstractBarChartItem@Qt_6_PRIVATE_API 6.6.1
 _ZTS20BoxWhiskersAnimation@Qt_6_PRIVATE_API 6.6.1
 _ZTS20CandlestickAnimation@Qt_6_PRIVATE_API 6.6.1
 _ZTS20CandlestickChartItem@Qt_6_PRIVATE_API 6.6.1
 _ZTS20CartesianChartLayout@Qt_6_PRIVATE_API 6.6.1
 _ZTS20PolarChartAxisRadial@Qt_6_PRIVATE_API 6.6.1
 _ZTS20QAbstractAxisPrivate@Qt_6_PRIVATE_API 6.6.1
 _ZTS20QBoxPlotLegendMarker@Qt_6 6.6.1
 _ZTS20QCategoryAxisPrivate@Qt_6_PRIVATE_API 6.6.1
 _ZTS20QDateTimeAxisPrivate@Qt_6_PRIVATE_API 6.6.1
 _ZTS20QHBoxPlotModelMapper@Qt_6 6.6.1
 _ZTS20QHorizontalBarSeries@Qt_6 6.6.1
 _ZTS20QLegendMarkerPrivate@Qt_6_PRIVATE_API 6.6.1
 _ZTS20QLogValueAxisPrivate@Qt_6_PRIVATE_API 6.6.1
 _ZTS20QSplineSeriesPrivate@Qt_6_PRIVATE_API 6.6.1
 _ZTS20QVBoxPlotModelMapper@Qt_6 6.6.1
 _ZTS21ChartBarCategoryAxisX@Qt_6_PRIVATE_API 6.6.1
 _ZTS21ChartBarCategoryAxisY@Qt_6_PRIVATE_API 6.6.1
 _ZTS21GLXYSeriesDataManager@Qt_6_PRIVATE_API 6.6.1
 _ZTS21PolarChartAxisAngular@Qt_6_PRIVATE_API 6.6.1
 _ZTS21QBoxPlotSeriesPrivate@Qt_6_PRIVATE_API 6.6.1
 _ZTS21QScatterSeriesPrivate@Qt_6_PRIVATE_API 6.6.1
 _ZTS21QXYModelMapperPrivate@Qt_6_PRIVATE_API 6.6.1
 _ZTS22HorizontalBarChartItem@Qt_6_PRIVATE_API 6.6.1
 _ZTS22QAbstractSeriesPrivate@Qt_6_PRIVATE_API 6.6.1
 _ZTS22QBarModelMapperPrivate@Qt_6_PRIVATE_API 6.6.1
 _ZTS22QCandlestickSetPrivate@Qt_6_PRIVATE_API 6.6.1
 _ZTS22QPieModelMapperPrivate@Qt_6_PRIVATE_API 6.6.1
 _ZTS22QXYLegendMarkerPrivate@Qt_6_PRIVATE_API 6.6.1
 _ZTS22RotatedRectangleMarker@Qt_6_PRIVATE_API 6.6.1
 _ZTS23QBarCategoryAxisPrivate@Qt_6_PRIVATE_API 6.6.1
 _ZTS23QBarLegendMarkerPrivate@Qt_6_PRIVATE_API 6.6.1
 _ZTS23QCandlestickModelMapper@Qt_6 6.6.1
 _ZTS23QPieLegendMarkerPrivate@Qt_6_PRIVATE_API 6.6.1
 _ZTS24QAreaLegendMarkerPrivate@Qt_6_PRIVATE_API 6.6.1
 _ZTS24QCandlestickLegendMarker@Qt_6 6.6.1
 _ZTS24QHCandlestickModelMapper@Qt_6 6.6.1
 _ZTS24QPercentBarSeriesPrivate@Qt_6_PRIVATE_API 6.6.1
 _ZTS24QStackedBarSeriesPrivate@Qt_6_PRIVATE_API 6.6.1
 _ZTS24QVCandlestickModelMapper@Qt_6 6.6.1
 _ZTS25PolarChartValueAxisRadial@Qt_6_PRIVATE_API 6.6.1
 _ZTS25QAbstractBarSeriesPrivate@Qt_6_PRIVATE_API 6.6.1
 _ZTS25QCandlestickSeriesPrivate@Qt_6_PRIVATE_API 6.6.1
 _ZTS26PolarChartValueAxisAngular@Qt_6_PRIVATE_API 6.6.1
 _ZTS26QBoxPlotModelMapperPrivate@Qt_6_PRIVATE_API 6.6.1
 _ZTS27QBoxPlotLegendMarkerPrivate@Qt_6_PRIVATE_API 6.6.1
 _ZTS27QHorizontalBarSeriesPrivate@Qt_6_PRIVATE_API 6.6.1
 _ZTS27QHorizontalPercentBarSeries@Qt_6 6.6.1
 _ZTS27QHorizontalStackedBarSeries@Qt_6 6.6.1
 _ZTS28PolarChartCategoryAxisRadial@Qt_6_PRIVATE_API 6.6.1
 _ZTS28PolarChartDateTimeAxisRadial@Qt_6_PRIVATE_API 6.6.1
 _ZTS28PolarChartLogValueAxisRadial@Qt_6_PRIVATE_API 6.6.1
 _ZTS29CandlestickBodyWicksAnimation@Qt_6_PRIVATE_API 6.6.1
 _ZTS29HorizontalPercentBarChartItem@Qt_6_PRIVATE_API 6.6.1
 _ZTS29HorizontalStackedBarChartItem@Qt_6_PRIVATE_API 6.6.1
 _ZTS29PolarChartCategoryAxisAngular@Qt_6_PRIVATE_API 6.6.1
 _ZTS29PolarChartDateTimeAxisAngular@Qt_6_PRIVATE_API 6.6.1
 _ZTS29PolarChartLogValueAxisAngular@Qt_6_PRIVATE_API 6.6.1
 _ZTS30QCandlestickModelMapperPrivate@Qt_6_PRIVATE_API 6.6.1
 _ZTS31QCandlestickLegendMarkerPrivate@Qt_6_PRIVATE_API 6.6.1
 _ZTS34QHorizontalPercentBarSeriesPrivate@Qt_6_PRIVATE_API 6.6.1
 _ZTS34QHorizontalStackedBarSeriesPrivate@Qt_6_PRIVATE_API 6.6.1
 _ZTS3Bar@Qt_6_PRIVATE_API 6.6.1
 _ZTS6QChart@Qt_6 6.6.1
 _ZTS7QBarSet@Qt_6 6.6.1
 _ZTS7QBoxSet@Qt_6 6.6.1
 _ZTS7QLegend@Qt_6 6.6.1
 _ZTS7XYChart@Qt_6_PRIVATE_API 6.6.1
 _ZTS8Scroller@Qt_6_PRIVATE_API 6.6.1
 _ZTS8XYDomain@Qt_6_PRIVATE_API 6.6.1
 _ZTS9ChartItem@Qt_6_PRIVATE_API 6.6.1
 _ZTS9QPieSlice@Qt_6 6.6.1
 _ZTS9QXYSeries@Qt_6 6.6.1
 _ZTSZN9QMetaType17registerConverterI5QHashIN9QXYSeries18PointConfigurationE8QVariantE9QIterableI16QMetaAssociationEN9QtPrivate34QAssociativeIterableConvertFunctorIS5_EEEEbT1_EUlPKvPvE_@Qt_6 6.6.1
 _ZTSZN9QMetaType17registerConverterI5QHashIiS1_IN9QXYSeries18PointConfigurationE8QVariantEE9QIterableI16QMetaAssociationEN9QtPrivate34QAssociativeIterableConvertFunctorIS6_EEEEbT1_EUlPKvPvE_@Qt_6 6.6.1
 _ZTSZN9QMetaType17registerConverterI5QListI6QRectFE9QIterableI13QMetaSequenceEN9QtPrivate33QSequentialIterableConvertFunctorIS3_EEEEbT1_EUlPKvPvE_@Qt_6 6.6.1
 _ZTSZN9QMetaType17registerConverterI5QListI7QPointFE9QIterableI13QMetaSequenceEN9QtPrivate33QSequentialIterableConvertFunctorIS3_EEEEbT1_EUlPKvPvE_@Qt_6 6.6.1
 _ZTSZN9QMetaType17registerConverterI5QListIP15QCandlestickSetE9QIterableI13QMetaSequenceEN9QtPrivate33QSequentialIterableConvertFunctorIS4_EEEEbT1_EUlPKvPvE_@Qt_6 6.6.1
 _ZTSZN9QMetaType17registerConverterI5QListIP7QBarSetE9QIterableI13QMetaSequenceEN9QtPrivate33QSequentialIterableConvertFunctorIS4_EEEEbT1_EUlPKvPvE_@Qt_6 6.6.1
 _ZTSZN9QMetaType17registerConverterI5QListIP7QBoxSetE9QIterableI13QMetaSequenceEN9QtPrivate33QSequentialIterableConvertFunctorIS4_EEEEbT1_EUlPKvPvE_@Qt_6 6.6.1
 _ZTSZN9QMetaType17registerConverterI5QListIP9QPieSliceE9QIterableI13QMetaSequenceEN9QtPrivate33QSequentialIterableConvertFunctorIS4_EEEEbT1_EUlPKvPvE_@Qt_6 6.6.1
 _ZTSZN9QMetaType17registerConverterI5QListIdE9QIterableI13QMetaSequenceEN9QtPrivate33QSequentialIterableConvertFunctorIS2_EEEEbT1_EUlPKvPvE_@Qt_6 6.6.1
 _ZTSZN9QMetaType17registerConverterI5QListIiE9QIterableI13QMetaSequenceEN9QtPrivate33QSequentialIterableConvertFunctorIS2_EEEEbT1_EUlPKvPvE_@Qt_6 6.6.1
 _ZTSZN9QMetaType17registerConverterISt4pairI5QListI7QPointFES4_EN17QtMetaTypePrivate25QPairVariantInterfaceImplENS6_35QPairVariantInterfaceConvertFunctorIS5_EEEEbT1_EUlPKvPvE_@Qt_6 6.6.1
 _ZTSZN9QMetaType19registerMutableViewI5QHashIN9QXYSeries18PointConfigurationE8QVariantE9QIterableI16QMetaAssociationEN9QtPrivate38QAssociativeIterableMutableViewFunctorIS5_EEEEbT1_EUlPvSD_E_@Qt_6 6.6.1
 _ZTSZN9QMetaType19registerMutableViewI5QHashIiS1_IN9QXYSeries18PointConfigurationE8QVariantEE9QIterableI16QMetaAssociationEN9QtPrivate38QAssociativeIterableMutableViewFunctorIS6_EEEEbT1_EUlPvSE_E_@Qt_6 6.6.1
 _ZTSZN9QMetaType19registerMutableViewI5QListI6QRectFE9QIterableI13QMetaSequenceEN9QtPrivate37QSequentialIterableMutableViewFunctorIS3_EEEEbT1_EUlPvSB_E_@Qt_6 6.6.1
 _ZTSZN9QMetaType19registerMutableViewI5QListI7QPointFE9QIterableI13QMetaSequenceEN9QtPrivate37QSequentialIterableMutableViewFunctorIS3_EEEEbT1_EUlPvSB_E_@Qt_6 6.6.1
 _ZTSZN9QMetaType19registerMutableViewI5QListIP15QCandlestickSetE9QIterableI13QMetaSequenceEN9QtPrivate37QSequentialIterableMutableViewFunctorIS4_EEEEbT1_EUlPvSC_E_@Qt_6 6.6.1
 _ZTSZN9QMetaType19registerMutableViewI5QListIP7QBarSetE9QIterableI13QMetaSequenceEN9QtPrivate37QSequentialIterableMutableViewFunctorIS4_EEEEbT1_EUlPvSC_E_@Qt_6 6.6.1
 _ZTSZN9QMetaType19registerMutableViewI5QListIP7QBoxSetE9QIterableI13QMetaSequenceEN9QtPrivate37QSequentialIterableMutableViewFunctorIS4_EEEEbT1_EUlPvSC_E_@Qt_6 6.6.1
 _ZTSZN9QMetaType19registerMutableViewI5QListIP9QPieSliceE9QIterableI13QMetaSequenceEN9QtPrivate37QSequentialIterableMutableViewFunctorIS4_EEEEbT1_EUlPvSC_E_@Qt_6 6.6.1
 _ZTSZN9QMetaType19registerMutableViewI5QListIdE9QIterableI13QMetaSequenceEN9QtPrivate37QSequentialIterableMutableViewFunctorIS2_EEEEbT1_EUlPvSA_E_@Qt_6 6.6.1
 _ZTSZN9QMetaType19registerMutableViewI5QListIiE9QIterableI13QMetaSequenceEN9QtPrivate37QSequentialIterableMutableViewFunctorIS2_EEEEbT1_EUlPvSA_E_@Qt_6 6.6.1
 _ZTV10ChartTitle@Qt_6_PRIVATE_API 6.6.1
 _ZTV10QBarSeries@Qt_6 6.6.1
 _ZTV10QChartView@Qt_6 6.6.1
 _ZTV10QColorAxis@Qt_6 6.6.1
 _ZTV10QPieSeries@Qt_6 6.6.1
 _ZTV10QValueAxis@Qt_6 6.6.1
 _ZTV11BoxWhiskers@Qt_6_PRIVATE_API 6.6.1
 _ZTV11Candlestick@Qt_6_PRIVATE_API 6.6.1
 _ZTV11LogXYDomain@Qt_6_PRIVATE_API 6.6.1
 _ZTV11PolarDomain@Qt_6_PRIVATE_API 6.6.1
 _ZTV11QAreaSeries@Qt_6 6.6.1
 _ZTV11QLineSeries@Qt_6 6.6.1
 _ZTV11QPolarChart@Qt_6 6.6.1
 _ZTV11XLogYDomain@Qt_6_PRIVATE_API 6.6.1
 _ZTV11XYAnimation@Qt_6_PRIVATE_API 6.6.1
 _ZTV12BarAnimation@Qt_6_PRIVATE_API 6.6.1
 _ZTV12BarChartItem@Qt_6_PRIVATE_API 6.6.1
 _ZTV12ChartDataSet@Qt_6_PRIVATE_API 6.6.1
 _ZTV12ChartElement@Qt_6_PRIVATE_API 6.6.1
 _ZTV12LegendLayout@Qt_6_PRIVATE_API 6.6.1
 _ZTV12PieAnimation@Qt_6_PRIVATE_API 6.6.1
 _ZTV12PieChartItem@Qt_6_PRIVATE_API 6.6.1
 _ZTV12PieSliceItem@Qt_6_PRIVATE_API 6.6.1
 _ZTV12ScrollTicker@Qt_6_PRIVATE_API 6.6.1
 _ZTV12VerticalAxis@Qt_6_PRIVATE_API 6.6.1
 _ZTV13AreaChartItem@Qt_6_PRIVATE_API 6.6.1
 _ZTV13AxisAnimation@Qt_6_PRIVATE_API 6.6.1
 _ZTV13LineChartItem@Qt_6_PRIVATE_API 6.6.1
 _ZTV13QAbstractAxis@Qt_6 6.6.1
 _ZTV13QCategoryAxis@Qt_6 6.6.1
 _ZTV13QDateTimeAxis@Qt_6 6.6.1
 _ZTV13QLegendMarker@Qt_6 6.6.1
 _ZTV13QLogValueAxis@Qt_6 6.6.1
 _ZTV13QSplineSeries@Qt_6 6.6.1
 _ZTV13XYPolarDomain@Qt_6_PRIVATE_API 6.6.1
 _ZTV14AbstractDomain@Qt_6_PRIVATE_API 6.6.1
 _ZTV14ChartAnimation@Qt_6_PRIVATE_API 6.6.1
 _ZTV14ChartPresenter@Qt_6_PRIVATE_API 6.6.1
 _ZTV14HorizontalAxis@Qt_6_PRIVATE_API 6.6.1
 _ZTV14LegendScroller@Qt_6_PRIVATE_API 6.6.1
 _ZTV14LogXLogYDomain@Qt_6_PRIVATE_API 6.6.1
 _ZTV14PolarChartAxis@Qt_6_PRIVATE_API 6.6.1
 _ZTV14QBarSetPrivate@Qt_6_PRIVATE_API 6.6.1
 _ZTV14QBoxPlotSeries@Qt_6 6.6.1
 _ZTV14QBoxSetPrivate@Qt_6_PRIVATE_API 6.6.1
 _ZTV14QLegendPrivate@Qt_6_PRIVATE_API 6.6.1
 _ZTV14QScatterSeries@Qt_6 6.6.1
 _ZTV14QXYModelMapper@Qt_6 6.6.1
 _ZTV14ValueAxisLabel@Qt_6_PRIVATE_API 6.6.1
 _ZTV15ChartBackground@Qt_6_PRIVATE_API 6.6.1
 _ZTV15ChartColorAxisX@Qt_6_PRIVATE_API 6.6.1
 _ZTV15ChartColorAxisY@Qt_6_PRIVATE_API 6.6.1
 _ZTV15ChartValueAxisX@Qt_6_PRIVATE_API 6.6.1
 _ZTV15ChartValueAxisY@Qt_6_PRIVATE_API 6.6.1
 _ZTV15QAbstractSeries@Qt_6 6.6.1
 _ZTV15QBarModelMapper@Qt_6 6.6.1
 _ZTV15QCandlestickSet@Qt_6 6.6.1
 _ZTV15QHXYModelMapper@Qt_6 6.6.1
 _ZTV15QPieModelMapper@Qt_6 6.6.1
 _ZTV15QVXYModelMapper@Qt_6 6.6.1
 _ZTV15QXYLegendMarker@Qt_6 6.6.1
 _ZTV15SplineAnimation@Qt_6_PRIVATE_API 6.6.1
 _ZTV15SplineChartItem@Qt_6_PRIVATE_API 6.6.1
 _ZTV16BoxPlotAnimation@Qt_6_PRIVATE_API 6.6.1
 _ZTV16BoxPlotChartItem@Qt_6_PRIVATE_API 6.6.1
 _ZTV16ChartAxisElement@Qt_6_PRIVATE_API 6.6.1
 _ZTV16LegendMarkerItem@Qt_6_PRIVATE_API 6.6.1
 _ZTV16LogXYPolarDomain@Qt_6_PRIVATE_API 6.6.1
 _ZTV16PolarChartLayout@Qt_6_PRIVATE_API 6.6.1
 _ZTV16QBarCategoryAxis@Qt_6 6.6.1
 _ZTV16QBarLegendMarker@Qt_6 6.6.1
 _ZTV16QHBarModelMapper@Qt_6 6.6.1
 _ZTV16QHPieModelMapper@Qt_6 6.6.1
 _ZTV16QPieLegendMarker@Qt_6 6.6.1
 _ZTV16QPieSlicePrivate@Qt_6_PRIVATE_API 6.6.1
 _ZTV16QVBarModelMapper@Qt_6 6.6.1
 _ZTV16QVPieModelMapper@Qt_6 6.6.1
 _ZTV16QXYSeriesPrivate@Qt_6_PRIVATE_API 6.6.1
 _ZTV16ScatterAnimation@Qt_6_PRIVATE_API 6.6.1
 _ZTV16ScatterChartItem@Qt_6_PRIVATE_API 6.6.1
 _ZTV16XLogYPolarDomain@Qt_6_PRIVATE_API 6.6.1
 _ZTV17ChartThemeManager@Qt_6_PRIVATE_API 6.6.1
 _ZTV17DateTimeAxisLabel@Qt_6_PRIVATE_API 6.6.1
 _ZTV17EditableAxisLabel@Qt_6_PRIVATE_API 6.6.1
 _ZTV17PieSliceAnimation@Qt_6_PRIVATE_API 6.6.1
 _ZTV17QAreaLegendMarker@Qt_6 6.6.1
 _ZTV17QBarSeriesPrivate@Qt_6_PRIVATE_API 6.6.1
 _ZTV17QColorAxisPrivate@Qt_6_PRIVATE_API 6.6.1
 _ZTV17QPercentBarSeries@Qt_6 6.6.1
 _ZTV17QPieSeriesPrivate@Qt_6_PRIVATE_API 6.6.1
 _ZTV17QStackedBarSeries@Qt_6 6.6.1
 _ZTV17QValueAxisPrivate@Qt_6_PRIVATE_API 6.6.1
 _ZTV18CartesianChartAxis@Qt_6_PRIVATE_API 6.6.1
 _ZTV18ChartCategoryAxisX@Qt_6_PRIVATE_API 6.6.1
 _ZTV18ChartCategoryAxisY@Qt_6_PRIVATE_API 6.6.1
 _ZTV18ChartDateTimeAxisX@Qt_6_PRIVATE_API 6.6.1
 _ZTV18ChartDateTimeAxisY@Qt_6_PRIVATE_API 6.6.1
 _ZTV18ChartLogValueAxisX@Qt_6_PRIVATE_API 6.6.1
 _ZTV18ChartLogValueAxisY@Qt_6_PRIVATE_API 6.6.1
 _ZTV18QAbstractBarSeries@Qt_6 6.6.1
 _ZTV18QAreaSeriesPrivate@Qt_6_PRIVATE_API 6.6.1
 _ZTV18QCandlestickSeries@Qt_6 6.6.1
 _ZTV18QLineSeriesPrivate@Qt_6_PRIVATE_API 6.6.1
 _ZTV19AbstractChartLayout@Qt_6_PRIVATE_API 6.6.1
 _ZTV19LogXLogYPolarDomain@Qt_6_PRIVATE_API 6.6.1
 _ZTV19PercentBarChartItem@Qt_6_PRIVATE_API 6.6.1
 _ZTV19QBoxPlotModelMapper@Qt_6 6.6.1
 _ZTV19StackedBarChartItem@Qt_6_PRIVATE_API 6.6.1
 _ZTV20AbstractBarChartItem@Qt_6_PRIVATE_API 6.6.1
 _ZTV20BoxWhiskersAnimation@Qt_6_PRIVATE_API 6.6.1
 _ZTV20CandlestickAnimation@Qt_6_PRIVATE_API 6.6.1
 _ZTV20CandlestickChartItem@Qt_6_PRIVATE_API 6.6.1
 _ZTV20CartesianChartLayout@Qt_6_PRIVATE_API 6.6.1
 _ZTV20PolarChartAxisRadial@Qt_6_PRIVATE_API 6.6.1
 _ZTV20QAbstractAxisPrivate@Qt_6_PRIVATE_API 6.6.1
 _ZTV20QBoxPlotLegendMarker@Qt_6 6.6.1
 _ZTV20QCategoryAxisPrivate@Qt_6_PRIVATE_API 6.6.1
 _ZTV20QDateTimeAxisPrivate@Qt_6_PRIVATE_API 6.6.1
 _ZTV20QHBoxPlotModelMapper@Qt_6 6.6.1
 _ZTV20QHorizontalBarSeries@Qt_6 6.6.1
 _ZTV20QLegendMarkerPrivate@Qt_6_PRIVATE_API 6.6.1
 _ZTV20QLogValueAxisPrivate@Qt_6_PRIVATE_API 6.6.1
 _ZTV20QSplineSeriesPrivate@Qt_6_PRIVATE_API 6.6.1
 _ZTV20QVBoxPlotModelMapper@Qt_6 6.6.1
 _ZTV21ChartBarCategoryAxisX@Qt_6_PRIVATE_API 6.6.1
 _ZTV21ChartBarCategoryAxisY@Qt_6_PRIVATE_API 6.6.1
 _ZTV21GLXYSeriesDataManager@Qt_6_PRIVATE_API 6.6.1
 _ZTV21PolarChartAxisAngular@Qt_6_PRIVATE_API 6.6.1
 _ZTV21QBoxPlotSeriesPrivate@Qt_6_PRIVATE_API 6.6.1
 _ZTV21QScatterSeriesPrivate@Qt_6_PRIVATE_API 6.6.1
 _ZTV21QXYModelMapperPrivate@Qt_6_PRIVATE_API 6.6.1
 _ZTV22HorizontalBarChartItem@Qt_6_PRIVATE_API 6.6.1
 _ZTV22QAbstractSeriesPrivate@Qt_6_PRIVATE_API 6.6.1
 _ZTV22QBarModelMapperPrivate@Qt_6_PRIVATE_API 6.6.1
 _ZTV22QCandlestickSetPrivate@Qt_6_PRIVATE_API 6.6.1
 _ZTV22QPieModelMapperPrivate@Qt_6_PRIVATE_API 6.6.1
 _ZTV22QXYLegendMarkerPrivate@Qt_6_PRIVATE_API 6.6.1
 _ZTV23QBarCategoryAxisPrivate@Qt_6_PRIVATE_API 6.6.1
 _ZTV23QBarLegendMarkerPrivate@Qt_6_PRIVATE_API 6.6.1
 _ZTV23QCandlestickModelMapper@Qt_6 6.6.1
 _ZTV23QPieLegendMarkerPrivate@Qt_6_PRIVATE_API 6.6.1
 _ZTV24QAreaLegendMarkerPrivate@Qt_6_PRIVATE_API 6.6.1
 _ZTV24QCandlestickLegendMarker@Qt_6 6.6.1
 _ZTV24QHCandlestickModelMapper@Qt_6 6.6.1
 _ZTV24QPercentBarSeriesPrivate@Qt_6_PRIVATE_API 6.6.1
 _ZTV24QStackedBarSeriesPrivate@Qt_6_PRIVATE_API 6.6.1
 _ZTV24QVCandlestickModelMapper@Qt_6 6.6.1
 _ZTV25PolarChartValueAxisRadial@Qt_6_PRIVATE_API 6.6.1
 _ZTV25QAbstractBarSeriesPrivate@Qt_6_PRIVATE_API 6.6.1
 _ZTV25QCandlestickSeriesPrivate@Qt_6_PRIVATE_API 6.6.1
 _ZTV26PolarChartValueAxisAngular@Qt_6_PRIVATE_API 6.6.1
 _ZTV26QBoxPlotModelMapperPrivate@Qt_6_PRIVATE_API 6.6.1
 _ZTV27QBoxPlotLegendMarkerPrivate@Qt_6_PRIVATE_API 6.6.1
 _ZTV27QHorizontalBarSeriesPrivate@Qt_6_PRIVATE_API 6.6.1
 _ZTV27QHorizontalPercentBarSeries@Qt_6 6.6.1
 _ZTV27QHorizontalStackedBarSeries@Qt_6 6.6.1
 _ZTV28PolarChartCategoryAxisRadial@Qt_6_PRIVATE_API 6.6.1
 _ZTV28PolarChartDateTimeAxisRadial@Qt_6_PRIVATE_API 6.6.1
 _ZTV28PolarChartLogValueAxisRadial@Qt_6_PRIVATE_API 6.6.1
 _ZTV29CandlestickBodyWicksAnimation@Qt_6_PRIVATE_API 6.6.1
 _ZTV29HorizontalPercentBarChartItem@Qt_6_PRIVATE_API 6.6.1
 _ZTV29HorizontalStackedBarChartItem@Qt_6_PRIVATE_API 6.6.1
 _ZTV29PolarChartCategoryAxisAngular@Qt_6_PRIVATE_API 6.6.1
 _ZTV29PolarChartDateTimeAxisAngular@Qt_6_PRIVATE_API 6.6.1
 _ZTV29PolarChartLogValueAxisAngular@Qt_6_PRIVATE_API 6.6.1
 _ZTV30QCandlestickModelMapperPrivate@Qt_6_PRIVATE_API 6.6.1
 _ZTV31QCandlestickLegendMarkerPrivate@Qt_6_PRIVATE_API 6.6.1
 _ZTV34QHorizontalPercentBarSeriesPrivate@Qt_6_PRIVATE_API 6.6.1
 _ZTV34QHorizontalStackedBarSeriesPrivate@Qt_6_PRIVATE_API 6.6.1
 _ZTV3Bar@Qt_6_PRIVATE_API 6.6.1
 _ZTV6QChart@Qt_6 6.6.1
 _ZTV7QBarSet@Qt_6 6.6.1
 _ZTV7QBoxSet@Qt_6 6.6.1
 _ZTV7QLegend@Qt_6 6.6.1
 _ZTV7XYChart@Qt_6_PRIVATE_API 6.6.1
 _ZTV8Scroller@Qt_6_PRIVATE_API 6.6.1
 _ZTV8XYDomain@Qt_6_PRIVATE_API 6.6.1
 _ZTV9ChartItem@Qt_6_PRIVATE_API 6.6.1
 _ZTV9QPieSlice@Qt_6 6.6.1
 _ZTV9QXYSeries@Qt_6 6.6.1
 (optional=templinst)_ZZN9QMetaType21registerConverterImplI5QHashIN9QXYSeries18PointConfigurationE8QVariantE9QIterableI16QMetaAssociationEEEbSt8functionIFbPKvPvEES_S_E10unregister@Qt_6 6.6.1
 (optional=templinst)_ZZN9QMetaType21registerConverterImplI5QHashIiS1_IN9QXYSeries18PointConfigurationE8QVariantEE9QIterableI16QMetaAssociationEEEbSt8functionIFbPKvPvEES_S_E10unregister@Qt_6 6.6.1
 (optional=templinst)_ZZN9QMetaType21registerConverterImplI5QListI6QRectFE9QIterableI13QMetaSequenceEEEbSt8functionIFbPKvPvEES_S_E10unregister@Qt_6 6.6.1
 (optional=templinst)_ZZN9QMetaType21registerConverterImplI5QListI7QPointFE9QIterableI13QMetaSequenceEEEbSt8functionIFbPKvPvEES_S_E10unregister@Qt_6 6.6.1
 (optional=templinst)_ZZN9QMetaType21registerConverterImplI5QListIP15QCandlestickSetE9QIterableI13QMetaSequenceEEEbSt8functionIFbPKvPvEES_S_E10unregister@Qt_6 6.6.1
 (optional=templinst)_ZZN9QMetaType21registerConverterImplI5QListIP7QBarSetE9QIterableI13QMetaSequenceEEEbSt8functionIFbPKvPvEES_S_E10unregister@Qt_6 6.6.1
 (optional=templinst)_ZZN9QMetaType21registerConverterImplI5QListIP7QBoxSetE9QIterableI13QMetaSequenceEEEbSt8functionIFbPKvPvEES_S_E10unregister@Qt_6 6.6.1
 (optional=templinst)_ZZN9QMetaType21registerConverterImplI5QListIP9QPieSliceE9QIterableI13QMetaSequenceEEEbSt8functionIFbPKvPvEES_S_E10unregister@Qt_6 6.6.1
 (optional=templinst)_ZZN9QMetaType21registerConverterImplI5QListIdE9QIterableI13QMetaSequenceEEEbSt8functionIFbPKvPvEES_S_E10unregister@Qt_6 6.6.1
 (optional=templinst)_ZZN9QMetaType21registerConverterImplI5QListIiE9QIterableI13QMetaSequenceEEEbSt8functionIFbPKvPvEES_S_E10unregister@Qt_6 6.6.1
 (optional=templinst)_ZZN9QMetaType21registerConverterImplISt4pairI5QListI7QPointFES4_EN17QtMetaTypePrivate25QPairVariantInterfaceImplEEEbSt8functionIFbPKvPvEES_S_E10unregister@Qt_6 6.6.1
 (optional=templinst)_ZZN9QMetaType23registerMutableViewImplI5QHashIN9QXYSeries18PointConfigurationE8QVariantE9QIterableI16QMetaAssociationEEEbSt8functionIFbPvSA_EES_S_E10unregister@Qt_6 6.6.1
 (optional=templinst)_ZZN9QMetaType23registerMutableViewImplI5QHashIiS1_IN9QXYSeries18PointConfigurationE8QVariantEE9QIterableI16QMetaAssociationEEEbSt8functionIFbPvSB_EES_S_E10unregister@Qt_6 6.6.1
 (optional=templinst)_ZZN9QMetaType23registerMutableViewImplI5QListI6QRectFE9QIterableI13QMetaSequenceEEEbSt8functionIFbPvS8_EES_S_E10unregister@Qt_6 6.6.1
 (optional=templinst)_ZZN9QMetaType23registerMutableViewImplI5QListI7QPointFE9QIterableI13QMetaSequenceEEEbSt8functionIFbPvS8_EES_S_E10unregister@Qt_6 6.6.1
 (optional=templinst)_ZZN9QMetaType23registerMutableViewImplI5QListIP15QCandlestickSetE9QIterableI13QMetaSequenceEEEbSt8functionIFbPvS9_EES_S_E10unregister@Qt_6 6.6.1
 (optional=templinst)_ZZN9QMetaType23registerMutableViewImplI5QListIP7QBarSetE9QIterableI13QMetaSequenceEEEbSt8functionIFbPvS9_EES_S_E10unregister@Qt_6 6.6.1
 (optional=templinst)_ZZN9QMetaType23registerMutableViewImplI5QListIP7QBoxSetE9QIterableI13QMetaSequenceEEEbSt8functionIFbPvS9_EES_S_E10unregister@Qt_6 6.6.1
 (optional=templinst)_ZZN9QMetaType23registerMutableViewImplI5QListIP9QPieSliceE9QIterableI13QMetaSequenceEEEbSt8functionIFbPvS9_EES_S_E10unregister@Qt_6 6.6.1
 (optional=templinst)_ZZN9QMetaType23registerMutableViewImplI5QListIdE9QIterableI13QMetaSequenceEEEbSt8functionIFbPvS7_EES_S_E10unregister@Qt_6 6.6.1
 (optional=templinst)_ZZN9QMetaType23registerMutableViewImplI5QListIiE9QIterableI13QMetaSequenceEEEbSt8functionIFbPvS7_EES_S_E10unregister@Qt_6 6.6.1
 (c++)"non-virtual thunk to AbstractBarChartItem::boundingRect() const@Qt_6_PRIVATE_API" 6.6.1
 (c++)"non-virtual thunk to AbstractBarChartItem::paint(QPainter*, QStyleOptionGraphicsItem const*, QWidget*)@Qt_6_PRIVATE_API" 6.6.1
 (c++)"non-virtual thunk to AbstractBarChartItem::~AbstractBarChartItem()@Qt_6_PRIVATE_API" 6.6.1
 (c++)"non-virtual thunk to AreaChartItem::boundingRect() const@Qt_6_PRIVATE_API" 6.6.1
 (c++)"non-virtual thunk to AreaChartItem::hoverEnterEvent(QGraphicsSceneHoverEvent*)@Qt_6_PRIVATE_API" 6.6.1
 (c++)"non-virtual thunk to AreaChartItem::hoverLeaveEvent(QGraphicsSceneHoverEvent*)@Qt_6_PRIVATE_API" 6.6.1
 (c++)"non-virtual thunk to AreaChartItem::mouseDoubleClickEvent(QGraphicsSceneMouseEvent*)@Qt_6_PRIVATE_API" 6.6.1
 (c++)"non-virtual thunk to AreaChartItem::mousePressEvent(QGraphicsSceneMouseEvent*)@Qt_6_PRIVATE_API" 6.6.1
 (c++)"non-virtual thunk to AreaChartItem::mouseReleaseEvent(QGraphicsSceneMouseEvent*)@Qt_6_PRIVATE_API" 6.6.1
 (c++)"non-virtual thunk to AreaChartItem::paint(QPainter*, QStyleOptionGraphicsItem const*, QWidget*)@Qt_6_PRIVATE_API" 6.6.1
 (c++)"non-virtual thunk to AreaChartItem::shape() const@Qt_6_PRIVATE_API" 6.6.1
 (c++)"non-virtual thunk to AreaChartItem::~AreaChartItem()@Qt_6_PRIVATE_API" 6.6.1
 (c++)"non-virtual thunk to Bar::hoverEnterEvent(QGraphicsSceneHoverEvent*)@Qt_6_PRIVATE_API" 6.6.1
 (c++)"non-virtual thunk to Bar::hoverLeaveEvent(QGraphicsSceneHoverEvent*)@Qt_6_PRIVATE_API" 6.6.1
 (c++)"non-virtual thunk to Bar::mouseDoubleClickEvent(QGraphicsSceneMouseEvent*)@Qt_6_PRIVATE_API" 6.6.1
 (c++)"non-virtual thunk to Bar::mousePressEvent(QGraphicsSceneMouseEvent*)@Qt_6_PRIVATE_API" 6.6.1
 (c++)"non-virtual thunk to Bar::mouseReleaseEvent(QGraphicsSceneMouseEvent*)@Qt_6_PRIVATE_API" 6.6.1
 (c++)"non-virtual thunk to Bar::paint(QPainter*, QStyleOptionGraphicsItem const*, QWidget*)@Qt_6_PRIVATE_API" 6.6.1
 (c++)"non-virtual thunk to Bar::~Bar()@Qt_6_PRIVATE_API" 6.6.1
 (c++)"non-virtual thunk to BoxPlotChartItem::boundingRect() const@Qt_6_PRIVATE_API" 6.6.1
 (c++)"non-virtual thunk to BoxPlotChartItem::paint(QPainter*, QStyleOptionGraphicsItem const*, QWidget*)@Qt_6_PRIVATE_API" 6.6.1
 (c++)"non-virtual thunk to BoxPlotChartItem::~BoxPlotChartItem()@Qt_6_PRIVATE_API" 6.6.1
 (c++)"non-virtual thunk to BoxWhiskers::boundingRect() const@Qt_6_PRIVATE_API" 6.6.1
 (c++)"non-virtual thunk to BoxWhiskers::hoverEnterEvent(QGraphicsSceneHoverEvent*)@Qt_6_PRIVATE_API" 6.6.1
 (c++)"non-virtual thunk to BoxWhiskers::hoverLeaveEvent(QGraphicsSceneHoverEvent*)@Qt_6_PRIVATE_API" 6.6.1
 (c++)"non-virtual thunk to BoxWhiskers::mouseDoubleClickEvent(QGraphicsSceneMouseEvent*)@Qt_6_PRIVATE_API" 6.6.1
 (c++)"non-virtual thunk to BoxWhiskers::mousePressEvent(QGraphicsSceneMouseEvent*)@Qt_6_PRIVATE_API" 6.6.1
 (c++)"non-virtual thunk to BoxWhiskers::mouseReleaseEvent(QGraphicsSceneMouseEvent*)@Qt_6_PRIVATE_API" 6.6.1
 (c++)"non-virtual thunk to BoxWhiskers::paint(QPainter*, QStyleOptionGraphicsItem const*, QWidget*)@Qt_6_PRIVATE_API" 6.6.1
 (c++)"non-virtual thunk to BoxWhiskers::~BoxWhiskers()@Qt_6_PRIVATE_API" 6.6.1
 (c++)"non-virtual thunk to Candlestick::boundingRect() const@Qt_6_PRIVATE_API" 6.6.1
 (c++)"non-virtual thunk to Candlestick::hoverEnterEvent(QGraphicsSceneHoverEvent*)@Qt_6_PRIVATE_API" 6.6.1
 (c++)"non-virtual thunk to Candlestick::hoverLeaveEvent(QGraphicsSceneHoverEvent*)@Qt_6_PRIVATE_API" 6.6.1
 (c++)"non-virtual thunk to Candlestick::mouseDoubleClickEvent(QGraphicsSceneMouseEvent*)@Qt_6_PRIVATE_API" 6.6.1
 (c++)"non-virtual thunk to Candlestick::mousePressEvent(QGraphicsSceneMouseEvent*)@Qt_6_PRIVATE_API" 6.6.1
 (c++)"non-virtual thunk to Candlestick::mouseReleaseEvent(QGraphicsSceneMouseEvent*)@Qt_6_PRIVATE_API" 6.6.1
 (c++)"non-virtual thunk to Candlestick::paint(QPainter*, QStyleOptionGraphicsItem const*, QWidget*)@Qt_6_PRIVATE_API" 6.6.1
 (c++)"non-virtual thunk to Candlestick::~Candlestick()@Qt_6_PRIVATE_API" 6.6.1
 (c++)"non-virtual thunk to CandlestickChartItem::boundingRect() const@Qt_6_PRIVATE_API" 6.6.1
 (c++)"non-virtual thunk to CandlestickChartItem::paint(QPainter*, QStyleOptionGraphicsItem const*, QWidget*)@Qt_6_PRIVATE_API" 6.6.1
 (c++)"non-virtual thunk to CandlestickChartItem::~CandlestickChartItem()@Qt_6_PRIVATE_API" 6.6.1
 (c++)"non-virtual thunk to CartesianChartAxis::sizeHint(Qt::SizeHint, QSizeF const&) const@Qt_6_PRIVATE_API" 6.6.1
 (c++)"non-virtual thunk to CartesianChartAxis::~CartesianChartAxis()@Qt_6_PRIVATE_API" 6.6.1
 (c++)"non-virtual thunk to ChartAxisElement::~ChartAxisElement()@Qt_6_PRIVATE_API" 6.6.1
 (c++)"non-virtual thunk to ChartBarCategoryAxisX::sizeHint(Qt::SizeHint, QSizeF const&) const@Qt_6_PRIVATE_API" 6.6.1
 (c++)"non-virtual thunk to ChartBarCategoryAxisX::updateGeometry()@Qt_6_PRIVATE_API" 6.6.1
 (c++)"non-virtual thunk to ChartBarCategoryAxisX::~ChartBarCategoryAxisX()@Qt_6_PRIVATE_API" 6.6.1
 (c++)"non-virtual thunk to ChartBarCategoryAxisY::sizeHint(Qt::SizeHint, QSizeF const&) const@Qt_6_PRIVATE_API" 6.6.1
 (c++)"non-virtual thunk to ChartBarCategoryAxisY::updateGeometry()@Qt_6_PRIVATE_API" 6.6.1
 (c++)"non-virtual thunk to ChartBarCategoryAxisY::~ChartBarCategoryAxisY()@Qt_6_PRIVATE_API" 6.6.1
 (c++)"non-virtual thunk to ChartCategoryAxisX::sizeHint(Qt::SizeHint, QSizeF const&) const@Qt_6_PRIVATE_API" 6.6.1
 (c++)"non-virtual thunk to ChartCategoryAxisX::updateGeometry()@Qt_6_PRIVATE_API" 6.6.1
 (c++)"non-virtual thunk to ChartCategoryAxisX::~ChartCategoryAxisX()@Qt_6_PRIVATE_API" 6.6.1
 (c++)"non-virtual thunk to ChartCategoryAxisY::sizeHint(Qt::SizeHint, QSizeF const&) const@Qt_6_PRIVATE_API" 6.6.1
 (c++)"non-virtual thunk to ChartCategoryAxisY::updateGeometry()@Qt_6_PRIVATE_API" 6.6.1
 (c++)"non-virtual thunk to ChartCategoryAxisY::~ChartCategoryAxisY()@Qt_6_PRIVATE_API" 6.6.1
 (c++)"non-virtual thunk to ChartColorAxisX::sizeHint(Qt::SizeHint, QSizeF const&) const@Qt_6_PRIVATE_API" 6.6.1
 (c++)"non-virtual thunk to ChartColorAxisX::updateGeometry()@Qt_6_PRIVATE_API" 6.6.1
 (c++)"non-virtual thunk to ChartColorAxisX::~ChartColorAxisX()@Qt_6_PRIVATE_API" 6.6.1
 (c++)"non-virtual thunk to ChartColorAxisY::sizeHint(Qt::SizeHint, QSizeF const&) const@Qt_6_PRIVATE_API" 6.6.1
 (c++)"non-virtual thunk to ChartColorAxisY::updateGeometry()@Qt_6_PRIVATE_API" 6.6.1
 (c++)"non-virtual thunk to ChartColorAxisY::~ChartColorAxisY()@Qt_6_PRIVATE_API" 6.6.1
 (c++)"non-virtual thunk to ChartDateTimeAxisX::sizeHint(Qt::SizeHint, QSizeF const&) const@Qt_6_PRIVATE_API" 6.6.1
 (c++)"non-virtual thunk to ChartDateTimeAxisX::updateGeometry()@Qt_6_PRIVATE_API" 6.6.1
 (c++)"non-virtual thunk to ChartDateTimeAxisX::~ChartDateTimeAxisX()@Qt_6_PRIVATE_API" 6.6.1
 (c++)"non-virtual thunk to ChartDateTimeAxisY::sizeHint(Qt::SizeHint, QSizeF const&) const@Qt_6_PRIVATE_API" 6.6.1
 (c++)"non-virtual thunk to ChartDateTimeAxisY::updateGeometry()@Qt_6_PRIVATE_API" 6.6.1
 (c++)"non-virtual thunk to ChartDateTimeAxisY::~ChartDateTimeAxisY()@Qt_6_PRIVATE_API" 6.6.1
 (c++)"non-virtual thunk to ChartLogValueAxisX::sizeHint(Qt::SizeHint, QSizeF const&) const@Qt_6_PRIVATE_API" 6.6.1
 (c++)"non-virtual thunk to ChartLogValueAxisX::updateGeometry()@Qt_6_PRIVATE_API" 6.6.1
 (c++)"non-virtual thunk to ChartLogValueAxisX::~ChartLogValueAxisX()@Qt_6_PRIVATE_API" 6.6.1
 (c++)"non-virtual thunk to ChartLogValueAxisY::sizeHint(Qt::SizeHint, QSizeF const&) const@Qt_6_PRIVATE_API" 6.6.1
 (c++)"non-virtual thunk to ChartLogValueAxisY::updateGeometry()@Qt_6_PRIVATE_API" 6.6.1
 (c++)"non-virtual thunk to ChartLogValueAxisY::~ChartLogValueAxisY()@Qt_6_PRIVATE_API" 6.6.1
 (c++)"non-virtual thunk to ChartTitle::~ChartTitle()@Qt_6_PRIVATE_API" 6.6.1
 (c++)"non-virtual thunk to ChartValueAxisX::sizeHint(Qt::SizeHint, QSizeF const&) const@Qt_6_PRIVATE_API" 6.6.1
 (c++)"non-virtual thunk to ChartValueAxisX::updateGeometry()@Qt_6_PRIVATE_API" 6.6.1
 (c++)"non-virtual thunk to ChartValueAxisX::~ChartValueAxisX()@Qt_6_PRIVATE_API" 6.6.1
 (c++)"non-virtual thunk to ChartValueAxisY::sizeHint(Qt::SizeHint, QSizeF const&) const@Qt_6_PRIVATE_API" 6.6.1
 (c++)"non-virtual thunk to ChartValueAxisY::updateGeometry()@Qt_6_PRIVATE_API" 6.6.1
 (c++)"non-virtual thunk to ChartValueAxisY::~ChartValueAxisY()@Qt_6_PRIVATE_API" 6.6.1
 (c++)"non-virtual thunk to DateTimeAxisLabel::keyPressEvent(QKeyEvent*)@Qt_6_PRIVATE_API" 6.6.1
 (c++)"non-virtual thunk to EditableAxisLabel::boundingRect() const@Qt_6_PRIVATE_API" 6.6.1
 (c++)"non-virtual thunk to EditableAxisLabel::focusInEvent(QFocusEvent*)@Qt_6_PRIVATE_API" 6.6.1
 (c++)"non-virtual thunk to EditableAxisLabel::focusOutEvent(QFocusEvent*)@Qt_6_PRIVATE_API" 6.6.1
 (c++)"non-virtual thunk to EditableAxisLabel::sceneEvent(QEvent*)@Qt_6_PRIVATE_API" 6.6.1
 (c++)"non-virtual thunk to HorizontalAxis::sizeHint(Qt::SizeHint, QSizeF const&) const@Qt_6_PRIVATE_API" 6.6.1
 (c++)"non-virtual thunk to HorizontalAxis::updateGeometry()@Qt_6_PRIVATE_API" 6.6.1
 (c++)"non-virtual thunk to HorizontalAxis::~HorizontalAxis()@Qt_6_PRIVATE_API" 6.6.1
 (c++)"non-virtual thunk to LegendMarkerItem::boundingRect() const@Qt_6_PRIVATE_API" 6.6.1
 (c++)"non-virtual thunk to LegendMarkerItem::hoverEnterEvent(QGraphicsSceneHoverEvent*)@Qt_6_PRIVATE_API" 6.6.1
 (c++)"non-virtual thunk to LegendMarkerItem::hoverLeaveEvent(QGraphicsSceneHoverEvent*)@Qt_6_PRIVATE_API" 6.6.1
 (c++)"non-virtual thunk to LegendMarkerItem::paint(QPainter*, QStyleOptionGraphicsItem const*, QWidget*)@Qt_6_PRIVATE_API" 6.6.1
 (c++)"non-virtual thunk to LegendMarkerItem::setGeometry(QRectF const&)@Qt_6_PRIVATE_API" 6.6.1
 (c++)"non-virtual thunk to LegendMarkerItem::sizeHint(Qt::SizeHint, QSizeF const&) const@Qt_6_PRIVATE_API" 6.6.1
 (c++)"non-virtual thunk to LegendMarkerItem::~LegendMarkerItem()@Qt_6_PRIVATE_API" 6.6.1
 (c++)"non-virtual thunk to LegendScroller::hoverEnterEvent(QGraphicsSceneHoverEvent*)@Qt_6_PRIVATE_API" 6.6.1
 (c++)"non-virtual thunk to LegendScroller::hoverLeaveEvent(QGraphicsSceneHoverEvent*)@Qt_6_PRIVATE_API" 6.6.1
 (c++)"non-virtual thunk to LegendScroller::hoverMoveEvent(QGraphicsSceneHoverEvent*)@Qt_6_PRIVATE_API" 6.6.1
 (c++)"non-virtual thunk to LegendScroller::mouseDoubleClickEvent(QGraphicsSceneMouseEvent*)@Qt_6_PRIVATE_API" 6.6.1
 (c++)"non-virtual thunk to LegendScroller::mouseMoveEvent(QGraphicsSceneMouseEvent*)@Qt_6_PRIVATE_API" 6.6.1
 (c++)"non-virtual thunk to LegendScroller::mousePressEvent(QGraphicsSceneMouseEvent*)@Qt_6_PRIVATE_API" 6.6.1
 (c++)"non-virtual thunk to LegendScroller::mouseReleaseEvent(QGraphicsSceneMouseEvent*)@Qt_6_PRIVATE_API" 6.6.1
 (c++)"non-virtual thunk to LegendScroller::offset() const@Qt_6_PRIVATE_API" 6.6.1
 (c++)"non-virtual thunk to LegendScroller::paint(QPainter*, QStyleOptionGraphicsItem const*, QWidget*)@Qt_6_PRIVATE_API" 6.6.1
 (c++)"non-virtual thunk to LegendScroller::setOffset(QPointF const&)@Qt_6_PRIVATE_API" 6.6.1
 (c++)"non-virtual thunk to LineChartItem::boundingRect() const@Qt_6_PRIVATE_API" 6.6.1
 (c++)"non-virtual thunk to LineChartItem::hoverEnterEvent(QGraphicsSceneHoverEvent*)@Qt_6_PRIVATE_API" 6.6.1
 (c++)"non-virtual thunk to LineChartItem::hoverLeaveEvent(QGraphicsSceneHoverEvent*)@Qt_6_PRIVATE_API" 6.6.1
 (c++)"non-virtual thunk to LineChartItem::mouseDoubleClickEvent(QGraphicsSceneMouseEvent*)@Qt_6_PRIVATE_API" 6.6.1
 (c++)"non-virtual thunk to LineChartItem::mousePressEvent(QGraphicsSceneMouseEvent*)@Qt_6_PRIVATE_API" 6.6.1
 (c++)"non-virtual thunk to LineChartItem::mouseReleaseEvent(QGraphicsSceneMouseEvent*)@Qt_6_PRIVATE_API" 6.6.1
 (c++)"non-virtual thunk to LineChartItem::paint(QPainter*, QStyleOptionGraphicsItem const*, QWidget*)@Qt_6_PRIVATE_API" 6.6.1
 (c++)"non-virtual thunk to LineChartItem::shape() const@Qt_6_PRIVATE_API" 6.6.1
 (c++)"non-virtual thunk to PieChartItem::hoverEnterEvent(QGraphicsSceneHoverEvent*)@Qt_6_PRIVATE_API" 6.6.1
 (c++)"non-virtual thunk to PieChartItem::hoverLeaveEvent(QGraphicsSceneHoverEvent*)@Qt_6_PRIVATE_API" 6.6.1
 (c++)"non-virtual thunk to PieChartItem::mouseDoubleClickEvent(QGraphicsSceneMouseEvent*)@Qt_6_PRIVATE_API" 6.6.1
 (c++)"non-virtual thunk to PieChartItem::mousePressEvent(QGraphicsSceneMouseEvent*)@Qt_6_PRIVATE_API" 6.6.1
 (c++)"non-virtual thunk to PieChartItem::mouseReleaseEvent(QGraphicsSceneMouseEvent*)@Qt_6_PRIVATE_API" 6.6.1
 (c++)"non-virtual thunk to PieChartItem::~PieChartItem()@Qt_6_PRIVATE_API" 6.6.1
 (c++)"non-virtual thunk to PieSliceItem::boundingRect() const@Qt_6_PRIVATE_API" 6.6.1
 (c++)"non-virtual thunk to PieSliceItem::hoverEnterEvent(QGraphicsSceneHoverEvent*)@Qt_6_PRIVATE_API" 6.6.1
 (c++)"non-virtual thunk to PieSliceItem::hoverLeaveEvent(QGraphicsSceneHoverEvent*)@Qt_6_PRIVATE_API" 6.6.1
 (c++)"non-virtual thunk to PieSliceItem::mouseDoubleClickEvent(QGraphicsSceneMouseEvent*)@Qt_6_PRIVATE_API" 6.6.1
 (c++)"non-virtual thunk to PieSliceItem::mousePressEvent(QGraphicsSceneMouseEvent*)@Qt_6_PRIVATE_API" 6.6.1
 (c++)"non-virtual thunk to PieSliceItem::mouseReleaseEvent(QGraphicsSceneMouseEvent*)@Qt_6_PRIVATE_API" 6.6.1
 (c++)"non-virtual thunk to PieSliceItem::paint(QPainter*, QStyleOptionGraphicsItem const*, QWidget*)@Qt_6_PRIVATE_API" 6.6.1
 (c++)"non-virtual thunk to PieSliceItem::shape() const@Qt_6_PRIVATE_API" 6.6.1
 (c++)"non-virtual thunk to PieSliceItem::~PieSliceItem()@Qt_6_PRIVATE_API" 6.6.1
 (c++)"non-virtual thunk to PolarChartAxis::~PolarChartAxis()@Qt_6_PRIVATE_API" 6.6.1
 (c++)"non-virtual thunk to PolarChartAxisAngular::sizeHint(Qt::SizeHint, QSizeF const&) const@Qt_6_PRIVATE_API" 6.6.1
 (c++)"non-virtual thunk to PolarChartAxisAngular::updateGeometry()@Qt_6_PRIVATE_API" 6.6.1
 (c++)"non-virtual thunk to PolarChartAxisAngular::~PolarChartAxisAngular()@Qt_6_PRIVATE_API" 6.6.1
 (c++)"non-virtual thunk to PolarChartAxisRadial::sizeHint(Qt::SizeHint, QSizeF const&) const@Qt_6_PRIVATE_API" 6.6.1
 (c++)"non-virtual thunk to PolarChartAxisRadial::updateGeometry()@Qt_6_PRIVATE_API" 6.6.1
 (c++)"non-virtual thunk to PolarChartAxisRadial::~PolarChartAxisRadial()@Qt_6_PRIVATE_API" 6.6.1
 (c++)"non-virtual thunk to PolarChartCategoryAxisAngular::~PolarChartCategoryAxisAngular()@Qt_6_PRIVATE_API" 6.6.1
 (c++)"non-virtual thunk to PolarChartCategoryAxisRadial::~PolarChartCategoryAxisRadial()@Qt_6_PRIVATE_API" 6.6.1
 (c++)"non-virtual thunk to PolarChartDateTimeAxisAngular::~PolarChartDateTimeAxisAngular()@Qt_6_PRIVATE_API" 6.6.1
 (c++)"non-virtual thunk to PolarChartDateTimeAxisRadial::~PolarChartDateTimeAxisRadial()@Qt_6_PRIVATE_API" 6.6.1
 (c++)"non-virtual thunk to PolarChartLogValueAxisAngular::~PolarChartLogValueAxisAngular()@Qt_6_PRIVATE_API" 6.6.1
 (c++)"non-virtual thunk to PolarChartLogValueAxisRadial::~PolarChartLogValueAxisRadial()@Qt_6_PRIVATE_API" 6.6.1
 (c++)"non-virtual thunk to PolarChartValueAxisAngular::~PolarChartValueAxisAngular()@Qt_6_PRIVATE_API" 6.6.1
 (c++)"non-virtual thunk to PolarChartValueAxisRadial::~PolarChartValueAxisRadial()@Qt_6_PRIVATE_API" 6.6.1
 (c++)"non-virtual thunk to QChart::~QChart()@Qt_6" 6.6.1
 (c++)"non-virtual thunk to QChartView::~QChartView()@Qt_6" 6.6.1
 (c++)"non-virtual thunk to QLegend::paint(QPainter*, QStyleOptionGraphicsItem const*, QWidget*)@Qt_6" 6.6.1
 (c++)"non-virtual thunk to QLegend::~QLegend()@Qt_6" 6.6.1
 (c++)"non-virtual thunk to QPolarChart::~QPolarChart()@Qt_6" 6.6.1
 (c++)"non-virtual thunk to ScatterChartItem::boundingRect() const@Qt_6_PRIVATE_API" 6.6.1
 (c++)"non-virtual thunk to ScatterChartItem::hoverMoveEvent(QGraphicsSceneHoverEvent*)@Qt_6_PRIVATE_API" 6.6.1
 (c++)"non-virtual thunk to ScatterChartItem::mouseDoubleClickEvent(QGraphicsSceneMouseEvent*)@Qt_6_PRIVATE_API" 6.6.1
 (c++)"non-virtual thunk to ScatterChartItem::mousePressEvent(QGraphicsSceneMouseEvent*)@Qt_6_PRIVATE_API" 6.6.1
 (c++)"non-virtual thunk to ScatterChartItem::mouseReleaseEvent(QGraphicsSceneMouseEvent*)@Qt_6_PRIVATE_API" 6.6.1
 (c++)"non-virtual thunk to ScatterChartItem::paint(QPainter*, QStyleOptionGraphicsItem const*, QWidget*)@Qt_6_PRIVATE_API" 6.6.1
 (c++)"non-virtual thunk to SplineChartItem::boundingRect() const@Qt_6_PRIVATE_API" 6.6.1
 (c++)"non-virtual thunk to SplineChartItem::hoverEnterEvent(QGraphicsSceneHoverEvent*)@Qt_6_PRIVATE_API" 6.6.1
 (c++)"non-virtual thunk to SplineChartItem::hoverLeaveEvent(QGraphicsSceneHoverEvent*)@Qt_6_PRIVATE_API" 6.6.1
 (c++)"non-virtual thunk to SplineChartItem::mouseDoubleClickEvent(QGraphicsSceneMouseEvent*)@Qt_6_PRIVATE_API" 6.6.1
 (c++)"non-virtual thunk to SplineChartItem::mousePressEvent(QGraphicsSceneMouseEvent*)@Qt_6_PRIVATE_API" 6.6.1
 (c++)"non-virtual thunk to SplineChartItem::mouseReleaseEvent(QGraphicsSceneMouseEvent*)@Qt_6_PRIVATE_API" 6.6.1
 (c++)"non-virtual thunk to SplineChartItem::paint(QPainter*, QStyleOptionGraphicsItem const*, QWidget*)@Qt_6_PRIVATE_API" 6.6.1
 (c++)"non-virtual thunk to SplineChartItem::shape() const@Qt_6_PRIVATE_API" 6.6.1
 (c++)"non-virtual thunk to ValueAxisLabel::keyPressEvent(QKeyEvent*)@Qt_6_PRIVATE_API" 6.6.1
 (c++)"non-virtual thunk to VerticalAxis::sizeHint(Qt::SizeHint, QSizeF const&) const@Qt_6_PRIVATE_API" 6.6.1
 (c++)"non-virtual thunk to VerticalAxis::updateGeometry()@Qt_6_PRIVATE_API" 6.6.1
 (c++)"non-virtual thunk to VerticalAxis::~VerticalAxis()@Qt_6_PRIVATE_API" 6.6.1
 qt_allocate_bar_set@Qt_6 6.6.1
